Archive member included to satisfy reference by file (symbol)

/opt/devkitpro/libctru/lib/libctru.a(os.o)
                              main.o (osGetKernelVersion)
/opt/devkitpro/libctru/lib/libctru.a(console.o)
                              main.o (consoleInit)
/opt/devkitpro/libctru/lib/libctru.a(gfx.o)
                              /opt/devkitpro/libctru/lib/libctru.a(console.o) (gfxSetScreenFormat)
/opt/devkitpro/libctru/lib/libctru.a(gsp.o)
                              /opt/devkitpro/libctru/lib/libctru.a(gfx.o) (gspInit)
/opt/devkitpro/libctru/lib/libctru.a(apt.o)
                              main.o (aptMainLoop)
/opt/devkitpro/libctru/lib/libctru.a(gx.o)
                              /opt/devkitpro/libctru/lib/libctru.a(gfx.o) (gxCmdBuf)
/opt/devkitpro/libctru/lib/libctru.a(initSystem.o)
                              /opt/devkitpro/libctru/lib/libctru.a(apt.o) (__system_retAddr)
/opt/devkitpro/libctru/lib/libctru.a(allocateHeaps.o)
                              /opt/devkitpro/libctru/lib/libctru.a(initSystem.o) (__system_allocateHeaps)
/opt/devkitpro/libctru/lib/libctru.a(initArgv.o)
                              /opt/devkitpro/libctru/lib/libctru.a(initSystem.o) (__system_initArgv)
/opt/devkitpro/libctru/lib/libctru.a(svc.o)
                              /opt/devkitpro/libctru/lib/libctru.a(allocateHeaps.o) (svcControlMemory)
/opt/devkitpro/libctru/lib/libctru.a(stack_adjust.o)
                              /opt/devkitpro/devkitARM/lib/gcc/arm-none-eabi/4.9.2/../../../../arm-none-eabi/lib/armv6k/fpu/3dsx_crt0.o (initSystem)
/opt/devkitpro/libctru/lib/libctru.a(default_font.bin.o)
                              /opt/devkitpro/libctru/lib/libctru.a(console.o) (default_font_bin)
/opt/devkitpro/libctru/lib/libctru.a(vram.o)
                              /opt/devkitpro/libctru/lib/libctru.a(gfx.o) (vramAlloc)
/opt/devkitpro/libctru/lib/libctru.a(linear.o)
                              /opt/devkitpro/libctru/lib/libctru.a(gfx.o) (linearAlloc)
/opt/devkitpro/libctru/lib/libctru.a(mem_pool.o)
                              /opt/devkitpro/libctru/lib/libctru.a(vram.o) (MemPool::Allocate(MemChunk&, unsigned long, int))
/opt/devkitpro/libctru/lib/libctru.a(srv.o)
                              /opt/devkitpro/libctru/lib/libctru.a(gsp.o) (srvGetServiceHandle)
/opt/devkitpro/libctru/lib/libctru.a(rbtree_init.o)
                              /opt/devkitpro/libctru/lib/libctru.a(vram.o) (rbtree_init)
/opt/devkitpro/libctru/lib/libctru.a(rbtree_insert.o)
                              /opt/devkitpro/libctru/lib/libctru.a(vram.o) (rbtree_insert)
/opt/devkitpro/libctru/lib/libctru.a(rbtree_rotate.o)
                              /opt/devkitpro/libctru/lib/libctru.a(rbtree_insert.o) (rbtree_rotate)
/opt/devkitpro/libctru/lib/libctru.a(rbtree_remove.o)
                              /opt/devkitpro/libctru/lib/libctru.a(vram.o) (rbtree_remove)
/opt/devkitpro/libctru/lib/libctru.a(rbtree_find.o)
                              /opt/devkitpro/libctru/lib/libctru.a(vram.o) (rbtree_find)
/opt/devkitpro/libctru/lib/libctru.a(appInit.o)
                              /opt/devkitpro/libctru/lib/libctru.a(stack_adjust.o) (__appInit)
/opt/devkitpro/libctru/lib/libctru.a(appExit.o)
                              /opt/devkitpro/libctru/lib/libctru.a(stack_adjust.o) (__appExit)
/opt/devkitpro/libctru/lib/libctru.a(ctru_exit.o)
                              /opt/devkitpro/libctru/lib/libctru.a(stack_adjust.o) (__libctru_exit)
/opt/devkitpro/libctru/lib/libctru.a(sdmc_dev.o)
                              /opt/devkitpro/libctru/lib/libctru.a(appInit.o) (sdmcInit)
/opt/devkitpro/libctru/lib/libctru.a(hid.o)
                              /opt/devkitpro/libctru/lib/libctru.a(appExit.o) (hidExit)
/opt/devkitpro/libctru/lib/libctru.a(fs.o)
                              /opt/devkitpro/libctru/lib/libctru.a(appExit.o) (fsExit)
/opt/devkitpro/libctru/lib/libctru.a(rbtree_iterator.o)
                              /opt/devkitpro/libctru/lib/libctru.a(rbtree_remove.o) (rbtree_node_next)
/opt/devkitpro/libctru/lib/libctru.a(utf8_to_utf16.o)
                              /opt/devkitpro/libctru/lib/libctru.a(sdmc_dev.o) (utf8_to_utf16)
/opt/devkitpro/libctru/lib/libctru.a(decode_utf8.o)
                              /opt/devkitpro/libctru/lib/libctru.a(sdmc_dev.o) (decode_utf8)
/opt/devkitpro/libctru/lib/libctru.a(utf16_to_utf8.o)
                              /opt/devkitpro/libctru/lib/libctru.a(sdmc_dev.o) (utf16_to_utf8)
/opt/devkitpro/libctru/lib/libctru.a(irrst.o)
                              /opt/devkitpro/libctru/lib/libctru.a(hid.o) (irrstScanInput)
/opt/devkitpro/libctru/lib/libctru.a(encode_utf16.o)
                              /opt/devkitpro/libctru/lib/libctru.a(utf8_to_utf16.o) (encode_utf16)
/opt/devkitpro/libctru/lib/libctru.a(encode_utf8.o)
                              /opt/devkitpro/libctru/lib/libctru.a(utf16_to_utf8.o) (encode_utf8)
/opt/devkitpro/libctru/lib/libctru.a(decode_utf16.o)
                              /opt/devkitpro/libctru/lib/libctru.a(utf16_to_utf8.o) (decode_utf16)
/opt/devkitpro/devkitARM/lib/gcc/arm-none-eabi/4.9.2/armv6k/fpu/libgcc.a(_divsi3.o)
                              /opt/devkitpro/libctru/lib/libctru.a(console.o) (__aeabi_idivmod)
/opt/devkitpro/devkitARM/lib/gcc/arm-none-eabi/4.9.2/armv6k/fpu/libgcc.a(_dvmd_tls.o)
                              /opt/devkitpro/devkitARM/lib/gcc/arm-none-eabi/4.9.2/armv6k/fpu/libgcc.a(_divsi3.o) (__aeabi_idiv0)
/opt/devkitpro/devkitARM/lib/gcc/arm-none-eabi/4.9.2/../../../../arm-none-eabi/lib/armv6k/fpu/libg.a(lib_a-bsearch.o)
                              /opt/devkitpro/libctru/lib/libctru.a(sdmc_dev.o) (bsearch)
/opt/devkitpro/devkitARM/lib/gcc/arm-none-eabi/4.9.2/../../../../arm-none-eabi/lib/armv6k/fpu/libg.a(lib_a-fini.o)
                              /opt/devkitpro/libctru/lib/libctru.a(stack_adjust.o) (__libc_fini_array)
/opt/devkitpro/devkitARM/lib/gcc/arm-none-eabi/4.9.2/../../../../arm-none-eabi/lib/armv6k/fpu/libg.a(lib_a-init.o)
                              /opt/devkitpro/libctru/lib/libctru.a(stack_adjust.o) (__libc_init_array)
/opt/devkitpro/devkitARM/lib/gcc/arm-none-eabi/4.9.2/../../../../arm-none-eabi/lib/armv6k/fpu/libg.a(lib_a-iprintf.o)
                              /opt/devkitpro/libctru/lib/libctru.a(console.o) (iprintf)
/opt/devkitpro/devkitARM/lib/gcc/arm-none-eabi/4.9.2/../../../../arm-none-eabi/lib/armv6k/fpu/libg.a(lib_a-malloc.o)
                              /opt/devkitpro/libctru/lib/libctru.a(vram.o) (malloc)
/opt/devkitpro/devkitARM/lib/gcc/arm-none-eabi/4.9.2/../../../../arm-none-eabi/lib/armv6k/fpu/libg.a(lib_a-mallocr.o)
                              /opt/devkitpro/devkitARM/lib/gcc/arm-none-eabi/4.9.2/../../../../arm-none-eabi/lib/armv6k/fpu/libg.a(lib_a-malloc.o) (_malloc_r)
/opt/devkitpro/devkitARM/lib/gcc/arm-none-eabi/4.9.2/../../../../arm-none-eabi/lib/armv6k/fpu/libg.a(lib_a-memcpy.o)
                              /opt/devkitpro/libctru/lib/libctru.a(console.o) (memcpy)
/opt/devkitpro/devkitARM/lib/gcc/arm-none-eabi/4.9.2/../../../../arm-none-eabi/lib/armv6k/fpu/libg.a(lib_a-memset.o)
                              /opt/devkitpro/libctru/lib/libctru.a(sdmc_dev.o) (memset)
/opt/devkitpro/devkitARM/lib/gcc/arm-none-eabi/4.9.2/../../../../arm-none-eabi/lib/armv6k/fpu/libg.a(lib_a-mlock.o)
                              /opt/devkitpro/devkitARM/lib/gcc/arm-none-eabi/4.9.2/../../../../arm-none-eabi/lib/armv6k/fpu/libg.a(lib_a-mallocr.o) (__malloc_lock)
/opt/devkitpro/devkitARM/lib/gcc/arm-none-eabi/4.9.2/../../../../arm-none-eabi/lib/armv6k/fpu/libg.a(lib_a-printf.o)
                              main.o (printf)
/opt/devkitpro/devkitARM/lib/gcc/arm-none-eabi/4.9.2/../../../../arm-none-eabi/lib/armv6k/fpu/libg.a(lib_a-setvbuf.o)
                              /opt/devkitpro/libctru/lib/libctru.a(console.o) (setvbuf)
/opt/devkitpro/devkitARM/lib/gcc/arm-none-eabi/4.9.2/../../../../arm-none-eabi/lib/armv6k/fpu/libg.a(lib_a-sscanf.o)
                              /opt/devkitpro/libctru/lib/libctru.a(console.o) (sscanf)
/opt/devkitpro/devkitARM/lib/gcc/arm-none-eabi/4.9.2/../../../../arm-none-eabi/lib/armv6k/fpu/libg.a(lib_a-stdio.o)
                              /opt/devkitpro/devkitARM/lib/gcc/arm-none-eabi/4.9.2/../../../../arm-none-eabi/lib/armv6k/fpu/libg.a(lib_a-sscanf.o) (__seofread)
/opt/devkitpro/devkitARM/lib/gcc/arm-none-eabi/4.9.2/../../../../arm-none-eabi/lib/armv6k/fpu/libg.a(lib_a-strchr.o)
                              /opt/devkitpro/libctru/lib/libctru.a(console.o) (strchr)
/opt/devkitpro/devkitARM/lib/gcc/arm-none-eabi/4.9.2/../../../../arm-none-eabi/lib/armv6k/fpu/libg.a(lib_a-strcpy.o)
                              /opt/devkitpro/libctru/lib/libctru.a(srv.o) (strcpy)
/opt/devkitpro/devkitARM/lib/gcc/arm-none-eabi/4.9.2/../../../../arm-none-eabi/lib/armv6k/fpu/libg.a(lib_a-strlen.o)
                              /opt/devkitpro/libctru/lib/libctru.a(srv.o) (strlen)
/opt/devkitpro/devkitARM/lib/gcc/arm-none-eabi/4.9.2/../../../../arm-none-eabi/lib/armv6k/fpu/libg.a(lib_a-strncat.o)
                              /opt/devkitpro/libctru/lib/libctru.a(sdmc_dev.o) (strncat)
/opt/devkitpro/devkitARM/lib/gcc/arm-none-eabi/4.9.2/../../../../arm-none-eabi/lib/armv6k/fpu/libg.a(lib_a-strncpy.o)
                              /opt/devkitpro/libctru/lib/libctru.a(sdmc_dev.o) (strncpy)
/opt/devkitpro/devkitARM/lib/gcc/arm-none-eabi/4.9.2/../../../../arm-none-eabi/lib/armv6k/fpu/libg.a(lib_a-svfscanf.o)
                              /opt/devkitpro/devkitARM/lib/gcc/arm-none-eabi/4.9.2/../../../../arm-none-eabi/lib/armv6k/fpu/libg.a(lib_a-sscanf.o) (__ssvfscanf_r)
/opt/devkitpro/devkitARM/lib/gcc/arm-none-eabi/4.9.2/../../../../arm-none-eabi/lib/armv6k/fpu/libg.a(lib_a-vfiprintf.o)
                              /opt/devkitpro/devkitARM/lib/gcc/arm-none-eabi/4.9.2/../../../../arm-none-eabi/lib/armv6k/fpu/libg.a(lib_a-iprintf.o) (_vfiprintf_r)
/opt/devkitpro/devkitARM/lib/gcc/arm-none-eabi/4.9.2/../../../../arm-none-eabi/lib/armv6k/fpu/libg.a(lib_a-vfprintf.o)
                              /opt/devkitpro/devkitARM/lib/gcc/arm-none-eabi/4.9.2/../../../../arm-none-eabi/lib/armv6k/fpu/libg.a(lib_a-printf.o) (_vfprintf_r)
/opt/devkitpro/devkitARM/lib/gcc/arm-none-eabi/4.9.2/../../../../arm-none-eabi/lib/armv6k/fpu/libg.a(lib_a-wcrtomb.o)
                              /opt/devkitpro/devkitARM/lib/gcc/arm-none-eabi/4.9.2/../../../../arm-none-eabi/lib/armv6k/fpu/libg.a(lib_a-vfiprintf.o) (_wcrtomb_r)
/opt/devkitpro/devkitARM/lib/gcc/arm-none-eabi/4.9.2/../../../../arm-none-eabi/lib/armv6k/fpu/libg.a(lib_a-wcsrtombs.o)
                              /opt/devkitpro/devkitARM/lib/gcc/arm-none-eabi/4.9.2/../../../../arm-none-eabi/lib/armv6k/fpu/libg.a(lib_a-vfiprintf.o) (_wcsrtombs_r)
/opt/devkitpro/devkitARM/lib/gcc/arm-none-eabi/4.9.2/../../../../arm-none-eabi/lib/armv6k/fpu/libg.a(lib_a-wctomb_r.o)
                              /opt/devkitpro/devkitARM/lib/gcc/arm-none-eabi/4.9.2/../../../../arm-none-eabi/lib/armv6k/fpu/libg.a(lib_a-wcrtomb.o) (__wctomb)
/opt/devkitpro/devkitARM/lib/gcc/arm-none-eabi/4.9.2/../../../../arm-none-eabi/lib/armv6k/fpu/libg.a(lib_a-wsetup.o)
                              /opt/devkitpro/devkitARM/lib/gcc/arm-none-eabi/4.9.2/../../../../arm-none-eabi/lib/armv6k/fpu/libg.a(lib_a-vfiprintf.o) (__swsetup_r)
/opt/devkitpro/devkitARM/lib/gcc/arm-none-eabi/4.9.2/../../../../arm-none-eabi/lib/armv6k/fpu/libg.a(lib_a-ctype_.o)
                              /opt/devkitpro/devkitARM/lib/gcc/arm-none-eabi/4.9.2/../../../../arm-none-eabi/lib/armv6k/fpu/libg.a(lib_a-svfscanf.o) (__ctype_ptr__)
/opt/devkitpro/devkitARM/lib/gcc/arm-none-eabi/4.9.2/../../../../arm-none-eabi/lib/armv6k/fpu/libg.a(lib_a-dtoa.o)
                              /opt/devkitpro/devkitARM/lib/gcc/arm-none-eabi/4.9.2/../../../../arm-none-eabi/lib/armv6k/fpu/libg.a(lib_a-vfprintf.o) (_dtoa_r)
/opt/devkitpro/devkitARM/lib/gcc/arm-none-eabi/4.9.2/../../../../arm-none-eabi/lib/armv6k/fpu/libg.a(lib_a-fflush.o)
                              /opt/devkitpro/devkitARM/lib/gcc/arm-none-eabi/4.9.2/../../../../arm-none-eabi/lib/armv6k/fpu/libg.a(lib_a-setvbuf.o) (_fflush_r)
/opt/devkitpro/devkitARM/lib/gcc/arm-none-eabi/4.9.2/../../../../arm-none-eabi/lib/armv6k/fpu/libg.a(lib_a-findfp.o)
                              /opt/devkitpro/devkitARM/lib/gcc/arm-none-eabi/4.9.2/../../../../arm-none-eabi/lib/armv6k/fpu/libg.a(lib_a-setvbuf.o) (_cleanup_r)
/opt/devkitpro/devkitARM/lib/gcc/arm-none-eabi/4.9.2/../../../../arm-none-eabi/lib/armv6k/fpu/libg.a(lib_a-fputwc.o)
                              /opt/devkitpro/devkitARM/lib/gcc/arm-none-eabi/4.9.2/../../../../arm-none-eabi/lib/armv6k/fpu/libg.a(lib_a-vfiprintf.o) (_fputwc_r)
/opt/devkitpro/devkitARM/lib/gcc/arm-none-eabi/4.9.2/../../../../arm-none-eabi/lib/armv6k/fpu/libg.a(lib_a-freer.o)
                              /opt/devkitpro/devkitARM/lib/gcc/arm-none-eabi/4.9.2/../../../../arm-none-eabi/lib/armv6k/fpu/libg.a(lib_a-malloc.o) (_free_r)
/opt/devkitpro/devkitARM/lib/gcc/arm-none-eabi/4.9.2/../../../../arm-none-eabi/lib/armv6k/fpu/libg.a(lib_a-fvwrite.o)
                              /opt/devkitpro/devkitARM/lib/gcc/arm-none-eabi/4.9.2/../../../../arm-none-eabi/lib/armv6k/fpu/libg.a(lib_a-vfiprintf.o) (__sfvwrite_r)
/opt/devkitpro/devkitARM/lib/gcc/arm-none-eabi/4.9.2/../../../../arm-none-eabi/lib/armv6k/fpu/libg.a(lib_a-fwalk.o)
                              /opt/devkitpro/devkitARM/lib/gcc/arm-none-eabi/4.9.2/../../../../arm-none-eabi/lib/armv6k/fpu/libg.a(lib_a-findfp.o) (_fwalk)
/opt/devkitpro/devkitARM/lib/gcc/arm-none-eabi/4.9.2/../../../../arm-none-eabi/lib/armv6k/fpu/libg.a(lib_a-impure.o)
                              /opt/devkitpro/devkitARM/lib/gcc/arm-none-eabi/4.9.2/../../../../arm-none-eabi/lib/armv6k/fpu/libg.a(lib_a-fflush.o) (_global_impure_ptr)
/opt/devkitpro/devkitARM/lib/gcc/arm-none-eabi/4.9.2/../../../../arm-none-eabi/lib/armv6k/fpu/libg.a(lib_a-iswspace.o)
                              /opt/devkitpro/devkitARM/lib/gcc/arm-none-eabi/4.9.2/../../../../arm-none-eabi/lib/armv6k/fpu/libg.a(lib_a-svfscanf.o) (iswspace)
/opt/devkitpro/devkitARM/lib/gcc/arm-none-eabi/4.9.2/../../../../arm-none-eabi/lib/armv6k/fpu/libg.a(lib_a-jp2uc.o)
                              /opt/devkitpro/devkitARM/lib/gcc/arm-none-eabi/4.9.2/../../../../arm-none-eabi/lib/armv6k/fpu/libg.a(lib_a-iswspace.o) (_jp2uc)
/opt/devkitpro/devkitARM/lib/gcc/arm-none-eabi/4.9.2/../../../../arm-none-eabi/lib/armv6k/fpu/libg.a(lib_a-locale.o)
                              /opt/devkitpro/devkitARM/lib/gcc/arm-none-eabi/4.9.2/../../../../arm-none-eabi/lib/armv6k/fpu/libg.a(lib_a-svfscanf.o) (__locale_charset)
/opt/devkitpro/devkitARM/lib/gcc/arm-none-eabi/4.9.2/../../../../arm-none-eabi/lib/armv6k/fpu/libg.a(lib_a-makebuf.o)
                              /opt/devkitpro/devkitARM/lib/gcc/arm-none-eabi/4.9.2/../../../../arm-none-eabi/lib/armv6k/fpu/libg.a(lib_a-wsetup.o) (__smakebuf_r)
/opt/devkitpro/devkitARM/lib/gcc/arm-none-eabi/4.9.2/../../../../arm-none-eabi/lib/armv6k/fpu/libg.a(lib_a-mbrtowc.o)
                              /opt/devkitpro/devkitARM/lib/gcc/arm-none-eabi/4.9.2/../../../../arm-none-eabi/lib/armv6k/fpu/libg.a(lib_a-svfscanf.o) (_mbrtowc_r)
/opt/devkitpro/devkitARM/lib/gcc/arm-none-eabi/4.9.2/../../../../arm-none-eabi/lib/armv6k/fpu/libg.a(lib_a-mbtowc_r.o)
                              /opt/devkitpro/devkitARM/lib/gcc/arm-none-eabi/4.9.2/../../../../arm-none-eabi/lib/armv6k/fpu/libg.a(lib_a-locale.o) (__utf8_mbtowc)
/opt/devkitpro/devkitARM/lib/gcc/arm-none-eabi/4.9.2/../../../../arm-none-eabi/lib/armv6k/fpu/libg.a(lib_a-memchr.o)
                              /opt/devkitpro/devkitARM/lib/gcc/arm-none-eabi/4.9.2/../../../../arm-none-eabi/lib/armv6k/fpu/libg.a(lib_a-vfiprintf.o) (memchr)
/opt/devkitpro/devkitARM/lib/gcc/arm-none-eabi/4.9.2/../../../../arm-none-eabi/lib/armv6k/fpu/libg.a(lib_a-memmove.o)
                              /opt/devkitpro/devkitARM/lib/gcc/arm-none-eabi/4.9.2/../../../../arm-none-eabi/lib/armv6k/fpu/libg.a(lib_a-fvwrite.o) (memmove)
/opt/devkitpro/devkitARM/lib/gcc/arm-none-eabi/4.9.2/../../../../arm-none-eabi/lib/armv6k/fpu/libg.a(lib_a-mprec.o)
                              /opt/devkitpro/devkitARM/lib/gcc/arm-none-eabi/4.9.2/../../../../arm-none-eabi/lib/armv6k/fpu/libg.a(lib_a-dtoa.o) (_Balloc)
/opt/devkitpro/devkitARM/lib/gcc/arm-none-eabi/4.9.2/../../../../arm-none-eabi/lib/armv6k/fpu/libg.a(lib_a-reallocr.o)
                              /opt/devkitpro/devkitARM/lib/gcc/arm-none-eabi/4.9.2/../../../../arm-none-eabi/lib/armv6k/fpu/libg.a(lib_a-fvwrite.o) (_realloc_r)
/opt/devkitpro/devkitARM/lib/gcc/arm-none-eabi/4.9.2/../../../../arm-none-eabi/lib/armv6k/fpu/libg.a(lib_a-sccl.o)
                              /opt/devkitpro/devkitARM/lib/gcc/arm-none-eabi/4.9.2/../../../../arm-none-eabi/lib/armv6k/fpu/libg.a(lib_a-svfscanf.o) (__sccl)
/opt/devkitpro/devkitARM/lib/gcc/arm-none-eabi/4.9.2/../../../../arm-none-eabi/lib/armv6k/fpu/libg.a(lib_a-sf_nan.o)
                              /opt/devkitpro/devkitARM/lib/gcc/arm-none-eabi/4.9.2/../../../../arm-none-eabi/lib/armv6k/fpu/libg.a(lib_a-svfscanf.o) (nanf)
/opt/devkitpro/devkitARM/lib/gcc/arm-none-eabi/4.9.2/../../../../arm-none-eabi/lib/armv6k/fpu/libg.a(lib_a-s_fpclassify.o)
                              /opt/devkitpro/devkitARM/lib/gcc/arm-none-eabi/4.9.2/../../../../arm-none-eabi/lib/armv6k/fpu/libg.a(lib_a-svfscanf.o) (__fpclassifyd)
/opt/devkitpro/devkitARM/lib/gcc/arm-none-eabi/4.9.2/../../../../arm-none-eabi/lib/armv6k/fpu/libg.a(lib_a-s_frexp.o)
                              /opt/devkitpro/devkitARM/lib/gcc/arm-none-eabi/4.9.2/../../../../arm-none-eabi/lib/armv6k/fpu/libg.a(lib_a-vfprintf.o) (frexp)
/opt/devkitpro/devkitARM/lib/gcc/arm-none-eabi/4.9.2/../../../../arm-none-eabi/lib/armv6k/fpu/libg.a(lib_a-sprintf.o)
                              /opt/devkitpro/devkitARM/lib/gcc/arm-none-eabi/4.9.2/../../../../arm-none-eabi/lib/armv6k/fpu/libg.a(lib_a-svfscanf.o) (sprintf)
/opt/devkitpro/devkitARM/lib/gcc/arm-none-eabi/4.9.2/../../../../arm-none-eabi/lib/armv6k/fpu/libg.a(lib_a-stpncpy.o)
                              /opt/devkitpro/devkitARM/lib/gcc/arm-none-eabi/4.9.2/../../../../arm-none-eabi/lib/armv6k/fpu/libg.a(lib_a-svfscanf.o) (stpncpy)
/opt/devkitpro/devkitARM/lib/gcc/arm-none-eabi/4.9.2/../../../../arm-none-eabi/lib/armv6k/fpu/libg.a(lib_a-strcasecmp.o)
                              /opt/devkitpro/devkitARM/lib/gcc/arm-none-eabi/4.9.2/../../../../arm-none-eabi/lib/armv6k/fpu/libg.a(lib_a-locale.o) (strcasecmp)
/opt/devkitpro/devkitARM/lib/gcc/arm-none-eabi/4.9.2/../../../../arm-none-eabi/lib/armv6k/fpu/libg.a(lib_a-strcat.o)
                              /opt/devkitpro/devkitARM/lib/gcc/arm-none-eabi/4.9.2/../../../../arm-none-eabi/lib/armv6k/fpu/libg.a(lib_a-locale.o) (strcat)
/opt/devkitpro/devkitARM/lib/gcc/arm-none-eabi/4.9.2/../../../../arm-none-eabi/lib/armv6k/fpu/libg.a(lib_a-strcmp.o)
                              /opt/devkitpro/devkitARM/lib/gcc/arm-none-eabi/4.9.2/../../../../arm-none-eabi/lib/armv6k/fpu/libg.a(lib_a-jp2uc.o) (strcmp)
/opt/devkitpro/devkitARM/lib/gcc/arm-none-eabi/4.9.2/../../../../arm-none-eabi/lib/armv6k/fpu/libg.a(lib_a-strlcpy.o)
                              /opt/devkitpro/devkitARM/lib/gcc/arm-none-eabi/4.9.2/../../../../arm-none-eabi/lib/armv6k/fpu/libg.a(lib_a-locale.o) (strlcpy)
/opt/devkitpro/devkitARM/lib/gcc/arm-none-eabi/4.9.2/../../../../arm-none-eabi/lib/armv6k/fpu/libg.a(lib_a-strncasecmp.o)
                              /opt/devkitpro/devkitARM/lib/gcc/arm-none-eabi/4.9.2/../../../../arm-none-eabi/lib/armv6k/fpu/libg.a(lib_a-locale.o) (strncasecmp)
/opt/devkitpro/devkitARM/lib/gcc/arm-none-eabi/4.9.2/../../../../arm-none-eabi/lib/armv6k/fpu/libg.a(lib_a-strncmp.o)
                              /opt/devkitpro/devkitARM/lib/gcc/arm-none-eabi/4.9.2/../../../../arm-none-eabi/lib/armv6k/fpu/libg.a(lib_a-locale.o) (strncmp)
/opt/devkitpro/devkitARM/lib/gcc/arm-none-eabi/4.9.2/../../../../arm-none-eabi/lib/armv6k/fpu/libg.a(lib_a-strtod.o)
                              /opt/devkitpro/devkitARM/lib/gcc/arm-none-eabi/4.9.2/../../../../arm-none-eabi/lib/armv6k/fpu/libg.a(lib_a-svfscanf.o) (_strtod_r)
/opt/devkitpro/devkitARM/lib/gcc/arm-none-eabi/4.9.2/../../../../arm-none-eabi/lib/armv6k/fpu/libg.a(lib_a-strtoll_r.o)
                              /opt/devkitpro/devkitARM/lib/gcc/arm-none-eabi/4.9.2/../../../../arm-none-eabi/lib/armv6k/fpu/libg.a(lib_a-svfscanf.o) (_strtoll_r)
/opt/devkitpro/devkitARM/lib/gcc/arm-none-eabi/4.9.2/../../../../arm-none-eabi/lib/armv6k/fpu/libg.a(lib_a-strtol.o)
                              /opt/devkitpro/devkitARM/lib/gcc/arm-none-eabi/4.9.2/../../../../arm-none-eabi/lib/armv6k/fpu/libg.a(lib_a-svfscanf.o) (_strtol_r)
/opt/devkitpro/devkitARM/lib/gcc/arm-none-eabi/4.9.2/../../../../arm-none-eabi/lib/armv6k/fpu/libg.a(lib_a-strtoull_r.o)
                              /opt/devkitpro/devkitARM/lib/gcc/arm-none-eabi/4.9.2/../../../../arm-none-eabi/lib/armv6k/fpu/libg.a(lib_a-svfscanf.o) (_strtoull_r)
/opt/devkitpro/devkitARM/lib/gcc/arm-none-eabi/4.9.2/../../../../arm-none-eabi/lib/armv6k/fpu/libg.a(lib_a-strtoul.o)
                              /opt/devkitpro/devkitARM/lib/gcc/arm-none-eabi/4.9.2/../../../../arm-none-eabi/lib/armv6k/fpu/libg.a(lib_a-svfscanf.o) (_strtoul_r)
/opt/devkitpro/devkitARM/lib/gcc/arm-none-eabi/4.9.2/../../../../arm-none-eabi/lib/armv6k/fpu/libg.a(lib_a-svfiprintf.o)
                              /opt/devkitpro/devkitARM/lib/gcc/arm-none-eabi/4.9.2/../../../../arm-none-eabi/lib/armv6k/fpu/libg.a(lib_a-vfiprintf.o) (__action_table)
/opt/devkitpro/devkitARM/lib/gcc/arm-none-eabi/4.9.2/../../../../arm-none-eabi/lib/armv6k/fpu/libg.a(lib_a-svfiscanf.o)
                              /opt/devkitpro/devkitARM/lib/gcc/arm-none-eabi/4.9.2/../../../../arm-none-eabi/lib/armv6k/fpu/libg.a(lib_a-svfscanf.o) (_sungetc_r)
/opt/devkitpro/devkitARM/lib/gcc/arm-none-eabi/4.9.2/../../../../arm-none-eabi/lib/armv6k/fpu/libg.a(lib_a-svfprintf.o)
                              /opt/devkitpro/devkitARM/lib/gcc/arm-none-eabi/4.9.2/../../../../arm-none-eabi/lib/armv6k/fpu/libg.a(lib_a-sprintf.o) (_svfprintf_r)
/opt/devkitpro/devkitARM/lib/gcc/arm-none-eabi/4.9.2/../../../../arm-none-eabi/lib/armv6k/fpu/libg.a(lib_a-ungetc.o)
                              /opt/devkitpro/devkitARM/lib/gcc/arm-none-eabi/4.9.2/../../../../arm-none-eabi/lib/armv6k/fpu/libg.a(lib_a-svfiscanf.o) (__submore)
/opt/devkitpro/devkitARM/lib/gcc/arm-none-eabi/4.9.2/../../../../arm-none-eabi/lib/armv6k/fpu/libg.a(lib_a-wbuf.o)
                              /opt/devkitpro/devkitARM/lib/gcc/arm-none-eabi/4.9.2/../../../../arm-none-eabi/lib/armv6k/fpu/libg.a(lib_a-fputwc.o) (__swbuf_r)
/opt/devkitpro/devkitARM/lib/gcc/arm-none-eabi/4.9.2/../../../../arm-none-eabi/lib/armv6k/fpu/libg.a(lib_a-wcsnrtombs.o)
                              /opt/devkitpro/devkitARM/lib/gcc/arm-none-eabi/4.9.2/../../../../arm-none-eabi/lib/armv6k/fpu/libg.a(lib_a-wcsrtombs.o) (_wcsnrtombs_r)
/opt/devkitpro/devkitARM/lib/gcc/arm-none-eabi/4.9.2/../../../../arm-none-eabi/lib/armv6k/fpu/libg.a(lib_a-callocr.o)
                              /opt/devkitpro/devkitARM/lib/gcc/arm-none-eabi/4.9.2/../../../../arm-none-eabi/lib/armv6k/fpu/libg.a(lib_a-mprec.o) (_calloc_r)
/opt/devkitpro/devkitARM/lib/gcc/arm-none-eabi/4.9.2/../../../../arm-none-eabi/lib/armv6k/fpu/libg.a(lib_a-fclose.o)
                              /opt/devkitpro/devkitARM/lib/gcc/arm-none-eabi/4.9.2/../../../../arm-none-eabi/lib/armv6k/fpu/libg.a(lib_a-findfp.o) (_fclose_r)
/opt/devkitpro/devkitARM/lib/gcc/arm-none-eabi/4.9.2/../../../../arm-none-eabi/lib/armv6k/fpu/libg.a(lib_a-gdtoa-gethex.o)
                              /opt/devkitpro/devkitARM/lib/gcc/arm-none-eabi/4.9.2/../../../../arm-none-eabi/lib/armv6k/fpu/libg.a(lib_a-strtod.o) (__gethex)
/opt/devkitpro/devkitARM/lib/gcc/arm-none-eabi/4.9.2/../../../../arm-none-eabi/lib/armv6k/fpu/libg.a(lib_a-gdtoa-hexnan.o)
                              /opt/devkitpro/devkitARM/lib/gcc/arm-none-eabi/4.9.2/../../../../arm-none-eabi/lib/armv6k/fpu/libg.a(lib_a-strtod.o) (__hexnan)
/opt/devkitpro/devkitARM/lib/gcc/arm-none-eabi/4.9.2/../../../../arm-none-eabi/lib/armv6k/fpu/libg.a(lib_a-getenv_r.o)
                              /opt/devkitpro/devkitARM/lib/gcc/arm-none-eabi/4.9.2/../../../../arm-none-eabi/lib/armv6k/fpu/libg.a(lib_a-locale.o) (_getenv_r)
/opt/devkitpro/devkitARM/lib/gcc/arm-none-eabi/4.9.2/../../../../arm-none-eabi/lib/armv6k/fpu/libg.a(lib_a-environ.o)
                              /opt/devkitpro/devkitARM/lib/gcc/arm-none-eabi/4.9.2/../../../../arm-none-eabi/lib/armv6k/fpu/libg.a(lib_a-getenv_r.o) (environ)
/opt/devkitpro/devkitARM/lib/gcc/arm-none-eabi/4.9.2/../../../../arm-none-eabi/lib/armv6k/fpu/libg.a(lib_a-envlock.o)
                              /opt/devkitpro/devkitARM/lib/gcc/arm-none-eabi/4.9.2/../../../../arm-none-eabi/lib/armv6k/fpu/libg.a(lib_a-getenv_r.o) (__env_lock)
/opt/devkitpro/devkitARM/lib/gcc/arm-none-eabi/4.9.2/../../../../arm-none-eabi/lib/armv6k/fpu/libsysbase.a(iosupport.o)
                              /opt/devkitpro/libctru/lib/libctru.a(sdmc_dev.o) (setDefaultDevice)
/opt/devkitpro/devkitARM/lib/gcc/arm-none-eabi/4.9.2/../../../../arm-none-eabi/lib/armv6k/fpu/libsysbase.a(close.o)
                              /opt/devkitpro/devkitARM/lib/gcc/arm-none-eabi/4.9.2/../../../../arm-none-eabi/lib/armv6k/fpu/libg.a(lib_a-stdio.o) (_close_r)
/opt/devkitpro/devkitARM/lib/gcc/arm-none-eabi/4.9.2/../../../../arm-none-eabi/lib/armv6k/fpu/libsysbase.a(fstat.o)
                              /opt/devkitpro/devkitARM/lib/gcc/arm-none-eabi/4.9.2/../../../../arm-none-eabi/lib/armv6k/fpu/libg.a(lib_a-makebuf.o) (_fstat_r)
/opt/devkitpro/devkitARM/lib/gcc/arm-none-eabi/4.9.2/../../../../arm-none-eabi/lib/armv6k/fpu/libsysbase.a(isatty.o)
                              /opt/devkitpro/devkitARM/lib/gcc/arm-none-eabi/4.9.2/../../../../arm-none-eabi/lib/armv6k/fpu/libg.a(lib_a-makebuf.o) (_isatty_r)
/opt/devkitpro/devkitARM/lib/gcc/arm-none-eabi/4.9.2/../../../../arm-none-eabi/lib/armv6k/fpu/libsysbase.a(lseek.o)
                              /opt/devkitpro/devkitARM/lib/gcc/arm-none-eabi/4.9.2/../../../../arm-none-eabi/lib/armv6k/fpu/libg.a(lib_a-stdio.o) (_lseek_r)
/opt/devkitpro/devkitARM/lib/gcc/arm-none-eabi/4.9.2/../../../../arm-none-eabi/lib/armv6k/fpu/libsysbase.a(read.o)
                              /opt/devkitpro/devkitARM/lib/gcc/arm-none-eabi/4.9.2/../../../../arm-none-eabi/lib/armv6k/fpu/libg.a(lib_a-stdio.o) (_read_r)
/opt/devkitpro/devkitARM/lib/gcc/arm-none-eabi/4.9.2/../../../../arm-none-eabi/lib/armv6k/fpu/libsysbase.a(sbrk.o)
                              /opt/devkitpro/devkitARM/lib/gcc/arm-none-eabi/4.9.2/../../../../arm-none-eabi/lib/armv6k/fpu/libg.a(lib_a-mallocr.o) (_sbrk_r)
/opt/devkitpro/devkitARM/lib/gcc/arm-none-eabi/4.9.2/../../../../arm-none-eabi/lib/armv6k/fpu/libsysbase.a(write.o)
                              /opt/devkitpro/devkitARM/lib/gcc/arm-none-eabi/4.9.2/../../../../arm-none-eabi/lib/armv6k/fpu/libg.a(lib_a-stdio.o) (_write_r)
/opt/devkitpro/devkitARM/lib/gcc/arm-none-eabi/4.9.2/../../../../arm-none-eabi/lib/armv6k/fpu/libsysbase.a(malloc_vars.o)
                              /opt/devkitpro/libctru/lib/libctru.a(allocateHeaps.o) (fake_heap_start)
/opt/devkitpro/devkitARM/lib/gcc/arm-none-eabi/4.9.2/../../../../arm-none-eabi/lib/armv6k/fpu/libsysbase.a(chdir.o)
                              /opt/devkitpro/libctru/lib/libctru.a(sdmc_dev.o) (chdir)
/opt/devkitpro/devkitARM/lib/gcc/arm-none-eabi/4.9.2/../../../../arm-none-eabi/lib/armv6k/fpu/libsysbase.a(flock.o)
                              /opt/devkitpro/devkitARM/lib/gcc/arm-none-eabi/4.9.2/../../../../arm-none-eabi/lib/armv6k/fpu/libg.a(lib_a-setvbuf.o) (__flockfile)
/opt/devkitpro/devkitARM/lib/gcc/arm-none-eabi/4.9.2/../../../../arm-none-eabi/lib/armv6k/fpu/libsysbase.a(syscall_support.o)
                              /opt/devkitpro/libctru/lib/libctru.a(initSystem.o) (__syscalls)
/opt/devkitpro/devkitARM/lib/gcc/arm-none-eabi/4.9.2/../../../../arm-none-eabi/lib/armv6k/fpu/libsysbase.a(handle_manager.o)
                              /opt/devkitpro/devkitARM/lib/gcc/arm-none-eabi/4.9.2/../../../../arm-none-eabi/lib/armv6k/fpu/libsysbase.a(close.o) (__release_handle)
/opt/devkitpro/devkitARM/lib/gcc/arm-none-eabi/4.9.2/../../../../arm-none-eabi/lib/armv6k/fpu/libsysbase.a(getreent.o)
                              /opt/devkitpro/libctru/lib/libctru.a(console.o) (__getreent)
/opt/devkitpro/devkitARM/lib/gcc/arm-none-eabi/4.9.2/armv6k/fpu/libgcc.a(_udivsi3.o)
                              /opt/devkitpro/devkitARM/lib/gcc/arm-none-eabi/4.9.2/../../../../arm-none-eabi/lib/armv6k/fpu/libg.a(lib_a-dtoa.o) (__aeabi_uidiv)
/opt/devkitpro/devkitARM/lib/gcc/arm-none-eabi/4.9.2/armv6k/fpu/libgcc.a(_aeabi_uldivmod.o)
                              /opt/devkitpro/devkitARM/lib/gcc/arm-none-eabi/4.9.2/../../../../arm-none-eabi/lib/armv6k/fpu/libg.a(lib_a-vfiprintf.o) (__aeabi_uldivmod)
/opt/devkitpro/devkitARM/lib/gcc/arm-none-eabi/4.9.2/armv6k/fpu/libgcc.a(bpabi.o)
                              /opt/devkitpro/devkitARM/lib/gcc/arm-none-eabi/4.9.2/armv6k/fpu/libgcc.a(_aeabi_uldivmod.o) (__gnu_uldivmod_helper)
/opt/devkitpro/devkitARM/lib/gcc/arm-none-eabi/4.9.2/armv6k/fpu/libgcc.a(_divdi3.o)
                              /opt/devkitpro/devkitARM/lib/gcc/arm-none-eabi/4.9.2/armv6k/fpu/libgcc.a(bpabi.o) (__divdi3)
/opt/devkitpro/devkitARM/lib/gcc/arm-none-eabi/4.9.2/armv6k/fpu/libgcc.a(_udivdi3.o)
                              /opt/devkitpro/devkitARM/lib/gcc/arm-none-eabi/4.9.2/armv6k/fpu/libgcc.a(bpabi.o) (__udivdi3)
/opt/devkitpro/devkitARM/lib/gcc/arm-none-eabi/4.9.2/../../../../arm-none-eabi/lib/armv6k/fpu/libg.a(lib_a-errno.o)
                              /opt/devkitpro/devkitARM/lib/gcc/arm-none-eabi/4.9.2/../../../../arm-none-eabi/lib/armv6k/fpu/libsysbase.a(handle_manager.o) (__errno)
/opt/devkitpro/devkitARM/lib/gcc/arm-none-eabi/4.9.2/../../../../arm-none-eabi/lib/armv6k/fpu/libg.a(lib_a-strnlen.o)
                              /opt/devkitpro/devkitARM/lib/gcc/arm-none-eabi/4.9.2/../../../../arm-none-eabi/lib/armv6k/fpu/libsysbase.a(chdir.o) (strnlen)
/opt/devkitpro/devkitARM/lib/gcc/arm-none-eabi/4.9.2/../../../../arm-none-eabi/lib/armv6k/fpu/libg.a(lib_a-strrchr.o)
                              /opt/devkitpro/devkitARM/lib/gcc/arm-none-eabi/4.9.2/../../../../arm-none-eabi/lib/armv6k/fpu/libsysbase.a(chdir.o) (strrchr)

Allocating common symbols
Common symbol       size              file

hidMemHandle        0x4               /opt/devkitpro/libctru/lib/libctru.a(hid.o)
currentCopy         0x4c              /opt/devkitpro/libctru/lib/libctru.a(console.o)
__heapBase          0x4               /opt/devkitpro/libctru/lib/libctru.a(allocateHeaps.o)
aptEventHandlerThread
                    0x4               /opt/devkitpro/libctru/lib/libctru.a(apt.o)
hidHandle           0x4               /opt/devkitpro/libctru/lib/libctru.a(hid.o)
gspEventStack       0x1000            /opt/devkitpro/libctru/lib/libctru.a(gsp.o)
gfxBottomFramebuffers
                    0x8               /opt/devkitpro/libctru/lib/libctru.a(gfx.o)
gspSharedMemHandle  0x4               /opt/devkitpro/libctru/lib/libctru.a(gfx.o)
__system_argv       0x4               /opt/devkitpro/libctru/lib/libctru.a(initArgv.o)
hidSharedMem        0x4               /opt/devkitpro/libctru/lib/libctru.a(hid.o)
__system_argc       0x4               /opt/devkitpro/libctru/lib/libctru.a(initArgv.o)
bottomFramebufferInfo
                    0x1c              /opt/devkitpro/libctru/lib/libctru.a(gfx.o)
__linear_heap       0x4               /opt/devkitpro/libctru/lib/libctru.a(allocateHeaps.o)
aptParameters       0x1000            /opt/devkitpro/libctru/lib/libctru.a(apt.o)
aptEventHandlerStack
                    0x1000            /opt/devkitpro/libctru/lib/libctru.a(apt.o)
aptuHandle          0x4               /opt/devkitpro/libctru/lib/libctru.a(apt.o)
irrstHandle         0x4               /opt/devkitpro/libctru/lib/libctru.a(irrst.o)
aptEvents           0xc               /opt/devkitpro/libctru/lib/libctru.a(apt.o)
gspEventThread      0x4               /opt/devkitpro/libctru/lib/libctru.a(gsp.o)
gspEvent            0x4               /opt/devkitpro/libctru/lib/libctru.a(gfx.o)
hidEvents           0x14              /opt/devkitpro/libctru/lib/libctru.a(hid.o)
__system_retAddr    0x4               /opt/devkitpro/libctru/lib/libctru.a(initSystem.o)
irrstEvent          0x4               /opt/devkitpro/libctru/lib/libctru.a(irrst.o)
gspEventCounts      0x1c              /opt/devkitpro/libctru/lib/libctru.a(gsp.o)
irrstMemHandle      0x4               /opt/devkitpro/libctru/lib/libctru.a(irrst.o)
gfxTopLeftFramebuffers
                    0x8               /opt/devkitpro/libctru/lib/libctru.a(gfx.o)
gfxTopRightFramebuffers
                    0x8               /opt/devkitpro/libctru/lib/libctru.a(gfx.o)
topFramebufferInfo  0x1c              /opt/devkitpro/libctru/lib/libctru.a(gfx.o)
gspEvents           0x1c              /opt/devkitpro/libctru/lib/libctru.a(gsp.o)
gfxThreadID         0x1               /opt/devkitpro/libctru/lib/libctru.a(gfx.o)
gfxSharedMemory     0x4               /opt/devkitpro/libctru/lib/libctru.a(gfx.o)
gspRunEvents        0x1               /opt/devkitpro/libctru/lib/libctru.a(gsp.o)
irrstSharedMem      0x4               /opt/devkitpro/libctru/lib/libctru.a(irrst.o)
aptStatusMutex      0x4               /opt/devkitpro/libctru/lib/libctru.a(apt.o)
gxCmdBuf            0x4               /opt/devkitpro/libctru/lib/libctru.a(gx.o)
aptLockHandle       0x4               /opt/devkitpro/libctru/lib/libctru.a(apt.o)
currentAppId        0x2               /opt/devkitpro/libctru/lib/libctru.a(apt.o)

Discarded input sections

 .comment       0x0000000000000000       0x23 /opt/devkitpro/devkitARM/lib/gcc/arm-none-eabi/4.9.2/armv6k/fpu/crtbegin.o
 .comment       0x0000000000000000       0x23 main.o
 .comment       0x0000000000000000       0x23 /opt/devkitpro/libctru/lib/libctru.a(os.o)
 .comment       0x0000000000000000       0x23 /opt/devkitpro/libctru/lib/libctru.a(console.o)
 .comment       0x0000000000000000       0x23 /opt/devkitpro/libctru/lib/libctru.a(gfx.o)
 .comment       0x0000000000000000       0x23 /opt/devkitpro/libctru/lib/libctru.a(gsp.o)
 .comment       0x0000000000000000       0x23 /opt/devkitpro/libctru/lib/libctru.a(apt.o)
 .comment       0x0000000000000000       0x23 /opt/devkitpro/libctru/lib/libctru.a(gx.o)
 .comment       0x0000000000000000       0x23 /opt/devkitpro/libctru/lib/libctru.a(initSystem.o)
 .comment       0x0000000000000000       0x23 /opt/devkitpro/libctru/lib/libctru.a(allocateHeaps.o)
 .comment       0x0000000000000000       0x23 /opt/devkitpro/libctru/lib/libctru.a(initArgv.o)
 .comment       0x0000000000000000       0x23 /opt/devkitpro/libctru/lib/libctru.a(vram.o)
 .comment       0x0000000000000000       0x23 /opt/devkitpro/libctru/lib/libctru.a(linear.o)
 .comment       0x0000000000000000       0x23 /opt/devkitpro/libctru/lib/libctru.a(mem_pool.o)
 .comment       0x0000000000000000       0x23 /opt/devkitpro/libctru/lib/libctru.a(srv.o)
 .comment       0x0000000000000000       0x23 /opt/devkitpro/libctru/lib/libctru.a(rbtree_init.o)
 .comment       0x0000000000000000       0x23 /opt/devkitpro/libctru/lib/libctru.a(rbtree_insert.o)
 .comment       0x0000000000000000       0x23 /opt/devkitpro/libctru/lib/libctru.a(rbtree_rotate.o)
 .comment       0x0000000000000000       0x23 /opt/devkitpro/libctru/lib/libctru.a(rbtree_remove.o)
 .comment       0x0000000000000000       0x23 /opt/devkitpro/libctru/lib/libctru.a(rbtree_find.o)
 .comment       0x0000000000000000       0x23 /opt/devkitpro/libctru/lib/libctru.a(appInit.o)
 .comment       0x0000000000000000       0x23 /opt/devkitpro/libctru/lib/libctru.a(appExit.o)
 .comment       0x0000000000000000       0x23 /opt/devkitpro/libctru/lib/libctru.a(ctru_exit.o)
 .comment       0x0000000000000000       0x23 /opt/devkitpro/libctru/lib/libctru.a(sdmc_dev.o)
 .comment       0x0000000000000000       0x23 /opt/devkitpro/libctru/lib/libctru.a(hid.o)
 .comment       0x0000000000000000       0x23 /opt/devkitpro/libctru/lib/libctru.a(fs.o)
 .comment       0x0000000000000000       0x23 /opt/devkitpro/libctru/lib/libctru.a(rbtree_iterator.o)
 .comment       0x0000000000000000       0x23 /opt/devkitpro/libctru/lib/libctru.a(utf8_to_utf16.o)
 .comment       0x0000000000000000       0x23 /opt/devkitpro/libctru/lib/libctru.a(decode_utf8.o)
 .comment       0x0000000000000000       0x23 /opt/devkitpro/libctru/lib/libctru.a(utf16_to_utf8.o)
 .comment       0x0000000000000000       0x23 /opt/devkitpro/libctru/lib/libctru.a(irrst.o)
 .comment       0x0000000000000000       0x23 /opt/devkitpro/libctru/lib/libctru.a(encode_utf16.o)
 .comment       0x0000000000000000       0x23 /opt/devkitpro/libctru/lib/libctru.a(encode_utf8.o)
 .comment       0x0000000000000000       0x23 /opt/devkitpro/libctru/lib/libctru.a(decode_utf16.o)
 .comment       0x0000000000000000       0x23 /opt/devkitpro/devkitARM/lib/gcc/arm-none-eabi/4.9.2/../../../../arm-none-eabi/lib/armv6k/fpu/libg.a(lib_a-bsearch.o)
 .comment       0x0000000000000000       0x23 /opt/devkitpro/devkitARM/lib/gcc/arm-none-eabi/4.9.2/../../../../arm-none-eabi/lib/armv6k/fpu/libg.a(lib_a-fini.o)
 .comment       0x0000000000000000       0x23 /opt/devkitpro/devkitARM/lib/gcc/arm-none-eabi/4.9.2/../../../../arm-none-eabi/lib/armv6k/fpu/libg.a(lib_a-init.o)
 .comment       0x0000000000000000       0x23 /opt/devkitpro/devkitARM/lib/gcc/arm-none-eabi/4.9.2/../../../../arm-none-eabi/lib/armv6k/fpu/libg.a(lib_a-iprintf.o)
 .comment       0x0000000000000000       0x23 /opt/devkitpro/devkitARM/lib/gcc/arm-none-eabi/4.9.2/../../../../arm-none-eabi/lib/armv6k/fpu/libg.a(lib_a-malloc.o)
 .comment       0x0000000000000000       0x23 /opt/devkitpro/devkitARM/lib/gcc/arm-none-eabi/4.9.2/../../../../arm-none-eabi/lib/armv6k/fpu/libg.a(lib_a-mallocr.o)
 .comment       0x0000000000000000       0x23 /opt/devkitpro/devkitARM/lib/gcc/arm-none-eabi/4.9.2/../../../../arm-none-eabi/lib/armv6k/fpu/libg.a(lib_a-memcpy.o)
 .comment       0x0000000000000000       0x23 /opt/devkitpro/devkitARM/lib/gcc/arm-none-eabi/4.9.2/../../../../arm-none-eabi/lib/armv6k/fpu/libg.a(lib_a-memset.o)
 .comment       0x0000000000000000       0x23 /opt/devkitpro/devkitARM/lib/gcc/arm-none-eabi/4.9.2/../../../../arm-none-eabi/lib/armv6k/fpu/libg.a(lib_a-mlock.o)
 .comment       0x0000000000000000       0x23 /opt/devkitpro/devkitARM/lib/gcc/arm-none-eabi/4.9.2/../../../../arm-none-eabi/lib/armv6k/fpu/libg.a(lib_a-printf.o)
 .comment       0x0000000000000000       0x23 /opt/devkitpro/devkitARM/lib/gcc/arm-none-eabi/4.9.2/../../../../arm-none-eabi/lib/armv6k/fpu/libg.a(lib_a-setvbuf.o)
 .comment       0x0000000000000000       0x23 /opt/devkitpro/devkitARM/lib/gcc/arm-none-eabi/4.9.2/../../../../arm-none-eabi/lib/armv6k/fpu/libg.a(lib_a-sscanf.o)
 .comment       0x0000000000000000       0x23 /opt/devkitpro/devkitARM/lib/gcc/arm-none-eabi/4.9.2/../../../../arm-none-eabi/lib/armv6k/fpu/libg.a(lib_a-stdio.o)
 .comment       0x0000000000000000       0x23 /opt/devkitpro/devkitARM/lib/gcc/arm-none-eabi/4.9.2/../../../../arm-none-eabi/lib/armv6k/fpu/libg.a(lib_a-strchr.o)
 .comment       0x0000000000000000       0x23 /opt/devkitpro/devkitARM/lib/gcc/arm-none-eabi/4.9.2/../../../../arm-none-eabi/lib/armv6k/fpu/libg.a(lib_a-strcpy.o)
 .comment       0x0000000000000000       0x23 /opt/devkitpro/devkitARM/lib/gcc/arm-none-eabi/4.9.2/../../../../arm-none-eabi/lib/armv6k/fpu/libg.a(lib_a-strlen.o)
 .comment       0x0000000000000000       0x23 /opt/devkitpro/devkitARM/lib/gcc/arm-none-eabi/4.9.2/../../../../arm-none-eabi/lib/armv6k/fpu/libg.a(lib_a-strncat.o)
 .comment       0x0000000000000000       0x23 /opt/devkitpro/devkitARM/lib/gcc/arm-none-eabi/4.9.2/../../../../arm-none-eabi/lib/armv6k/fpu/libg.a(lib_a-strncpy.o)
 .comment       0x0000000000000000       0x23 /opt/devkitpro/devkitARM/lib/gcc/arm-none-eabi/4.9.2/../../../../arm-none-eabi/lib/armv6k/fpu/libg.a(lib_a-svfscanf.o)
 .comment       0x0000000000000000       0x23 /opt/devkitpro/devkitARM/lib/gcc/arm-none-eabi/4.9.2/../../../../arm-none-eabi/lib/armv6k/fpu/libg.a(lib_a-vfiprintf.o)
 .comment       0x0000000000000000       0x23 /opt/devkitpro/devkitARM/lib/gcc/arm-none-eabi/4.9.2/../../../../arm-none-eabi/lib/armv6k/fpu/libg.a(lib_a-vfprintf.o)
 .comment       0x0000000000000000       0x23 /opt/devkitpro/devkitARM/lib/gcc/arm-none-eabi/4.9.2/../../../../arm-none-eabi/lib/armv6k/fpu/libg.a(lib_a-wcrtomb.o)
 .comment       0x0000000000000000       0x23 /opt/devkitpro/devkitARM/lib/gcc/arm-none-eabi/4.9.2/../../../../arm-none-eabi/lib/armv6k/fpu/libg.a(lib_a-wcsrtombs.o)
 .comment       0x0000000000000000       0x23 /opt/devkitpro/devkitARM/lib/gcc/arm-none-eabi/4.9.2/../../../../arm-none-eabi/lib/armv6k/fpu/libg.a(lib_a-wctomb_r.o)
 .comment       0x0000000000000000       0x23 /opt/devkitpro/devkitARM/lib/gcc/arm-none-eabi/4.9.2/../../../../arm-none-eabi/lib/armv6k/fpu/libg.a(lib_a-wsetup.o)
 .comment       0x0000000000000000       0x23 /opt/devkitpro/devkitARM/lib/gcc/arm-none-eabi/4.9.2/../../../../arm-none-eabi/lib/armv6k/fpu/libg.a(lib_a-ctype_.o)
 .comment       0x0000000000000000       0x23 /opt/devkitpro/devkitARM/lib/gcc/arm-none-eabi/4.9.2/../../../../arm-none-eabi/lib/armv6k/fpu/libg.a(lib_a-dtoa.o)
 .comment       0x0000000000000000       0x23 /opt/devkitpro/devkitARM/lib/gcc/arm-none-eabi/4.9.2/../../../../arm-none-eabi/lib/armv6k/fpu/libg.a(lib_a-fflush.o)
 .comment       0x0000000000000000       0x23 /opt/devkitpro/devkitARM/lib/gcc/arm-none-eabi/4.9.2/../../../../arm-none-eabi/lib/armv6k/fpu/libg.a(lib_a-findfp.o)
 .comment       0x0000000000000000       0x23 /opt/devkitpro/devkitARM/lib/gcc/arm-none-eabi/4.9.2/../../../../arm-none-eabi/lib/armv6k/fpu/libg.a(lib_a-fputwc.o)
 .comment       0x0000000000000000       0x23 /opt/devkitpro/devkitARM/lib/gcc/arm-none-eabi/4.9.2/../../../../arm-none-eabi/lib/armv6k/fpu/libg.a(lib_a-freer.o)
 .comment       0x0000000000000000       0x23 /opt/devkitpro/devkitARM/lib/gcc/arm-none-eabi/4.9.2/../../../../arm-none-eabi/lib/armv6k/fpu/libg.a(lib_a-fvwrite.o)
 .comment       0x0000000000000000       0x23 /opt/devkitpro/devkitARM/lib/gcc/arm-none-eabi/4.9.2/../../../../arm-none-eabi/lib/armv6k/fpu/libg.a(lib_a-fwalk.o)
 .comment       0x0000000000000000       0x23 /opt/devkitpro/devkitARM/lib/gcc/arm-none-eabi/4.9.2/../../../../arm-none-eabi/lib/armv6k/fpu/libg.a(lib_a-impure.o)
 .comment       0x0000000000000000       0x23 /opt/devkitpro/devkitARM/lib/gcc/arm-none-eabi/4.9.2/../../../../arm-none-eabi/lib/armv6k/fpu/libg.a(lib_a-iswspace.o)
 .comment       0x0000000000000000       0x23 /opt/devkitpro/devkitARM/lib/gcc/arm-none-eabi/4.9.2/../../../../arm-none-eabi/lib/armv6k/fpu/libg.a(lib_a-jp2uc.o)
 .comment       0x0000000000000000       0x23 /opt/devkitpro/devkitARM/lib/gcc/arm-none-eabi/4.9.2/../../../../arm-none-eabi/lib/armv6k/fpu/libg.a(lib_a-locale.o)
 .comment       0x0000000000000000       0x23 /opt/devkitpro/devkitARM/lib/gcc/arm-none-eabi/4.9.2/../../../../arm-none-eabi/lib/armv6k/fpu/libg.a(lib_a-makebuf.o)
 .comment       0x0000000000000000       0x23 /opt/devkitpro/devkitARM/lib/gcc/arm-none-eabi/4.9.2/../../../../arm-none-eabi/lib/armv6k/fpu/libg.a(lib_a-mbrtowc.o)
 .comment       0x0000000000000000       0x23 /opt/devkitpro/devkitARM/lib/gcc/arm-none-eabi/4.9.2/../../../../arm-none-eabi/lib/armv6k/fpu/libg.a(lib_a-mbtowc_r.o)
 .comment       0x0000000000000000       0x23 /opt/devkitpro/devkitARM/lib/gcc/arm-none-eabi/4.9.2/../../../../arm-none-eabi/lib/armv6k/fpu/libg.a(lib_a-memchr.o)
 .comment       0x0000000000000000       0x23 /opt/devkitpro/devkitARM/lib/gcc/arm-none-eabi/4.9.2/../../../../arm-none-eabi/lib/armv6k/fpu/libg.a(lib_a-memmove.o)
 .comment       0x0000000000000000       0x23 /opt/devkitpro/devkitARM/lib/gcc/arm-none-eabi/4.9.2/../../../../arm-none-eabi/lib/armv6k/fpu/libg.a(lib_a-mprec.o)
 .comment       0x0000000000000000       0x23 /opt/devkitpro/devkitARM/lib/gcc/arm-none-eabi/4.9.2/../../../../arm-none-eabi/lib/armv6k/fpu/libg.a(lib_a-reallocr.o)
 .comment       0x0000000000000000       0x23 /opt/devkitpro/devkitARM/lib/gcc/arm-none-eabi/4.9.2/../../../../arm-none-eabi/lib/armv6k/fpu/libg.a(lib_a-sccl.o)
 .comment       0x0000000000000000       0x23 /opt/devkitpro/devkitARM/lib/gcc/arm-none-eabi/4.9.2/../../../../arm-none-eabi/lib/armv6k/fpu/libg.a(lib_a-sf_nan.o)
 .comment       0x0000000000000000       0x23 /opt/devkitpro/devkitARM/lib/gcc/arm-none-eabi/4.9.2/../../../../arm-none-eabi/lib/armv6k/fpu/libg.a(lib_a-s_fpclassify.o)
 .comment       0x0000000000000000       0x23 /opt/devkitpro/devkitARM/lib/gcc/arm-none-eabi/4.9.2/../../../../arm-none-eabi/lib/armv6k/fpu/libg.a(lib_a-s_frexp.o)
 .comment       0x0000000000000000       0x23 /opt/devkitpro/devkitARM/lib/gcc/arm-none-eabi/4.9.2/../../../../arm-none-eabi/lib/armv6k/fpu/libg.a(lib_a-sprintf.o)
 .comment       0x0000000000000000       0x23 /opt/devkitpro/devkitARM/lib/gcc/arm-none-eabi/4.9.2/../../../../arm-none-eabi/lib/armv6k/fpu/libg.a(lib_a-stpncpy.o)
 .comment       0x0000000000000000       0x23 /opt/devkitpro/devkitARM/lib/gcc/arm-none-eabi/4.9.2/../../../../arm-none-eabi/lib/armv6k/fpu/libg.a(lib_a-strcasecmp.o)
 .comment       0x0000000000000000       0x23 /opt/devkitpro/devkitARM/lib/gcc/arm-none-eabi/4.9.2/../../../../arm-none-eabi/lib/armv6k/fpu/libg.a(lib_a-strcat.o)
 .comment       0x0000000000000000       0x23 /opt/devkitpro/devkitARM/lib/gcc/arm-none-eabi/4.9.2/../../../../arm-none-eabi/lib/armv6k/fpu/libg.a(lib_a-strlcpy.o)
 .comment       0x0000000000000000       0x23 /opt/devkitpro/devkitARM/lib/gcc/arm-none-eabi/4.9.2/../../../../arm-none-eabi/lib/armv6k/fpu/libg.a(lib_a-strncasecmp.o)
 .comment       0x0000000000000000       0x23 /opt/devkitpro/devkitARM/lib/gcc/arm-none-eabi/4.9.2/../../../../arm-none-eabi/lib/armv6k/fpu/libg.a(lib_a-strncmp.o)
 .comment       0x0000000000000000       0x23 /opt/devkitpro/devkitARM/lib/gcc/arm-none-eabi/4.9.2/../../../../arm-none-eabi/lib/armv6k/fpu/libg.a(lib_a-strtod.o)
 .comment       0x0000000000000000       0x23 /opt/devkitpro/devkitARM/lib/gcc/arm-none-eabi/4.9.2/../../../../arm-none-eabi/lib/armv6k/fpu/libg.a(lib_a-strtoll_r.o)
 .comment       0x0000000000000000       0x23 /opt/devkitpro/devkitARM/lib/gcc/arm-none-eabi/4.9.2/../../../../arm-none-eabi/lib/armv6k/fpu/libg.a(lib_a-strtol.o)
 .comment       0x0000000000000000       0x23 /opt/devkitpro/devkitARM/lib/gcc/arm-none-eabi/4.9.2/../../../../arm-none-eabi/lib/armv6k/fpu/libg.a(lib_a-strtoull_r.o)
 .comment       0x0000000000000000       0x23 /opt/devkitpro/devkitARM/lib/gcc/arm-none-eabi/4.9.2/../../../../arm-none-eabi/lib/armv6k/fpu/libg.a(lib_a-strtoul.o)
 .comment       0x0000000000000000       0x23 /opt/devkitpro/devkitARM/lib/gcc/arm-none-eabi/4.9.2/../../../../arm-none-eabi/lib/armv6k/fpu/libg.a(lib_a-svfiprintf.o)
 .comment       0x0000000000000000       0x23 /opt/devkitpro/devkitARM/lib/gcc/arm-none-eabi/4.9.2/../../../../arm-none-eabi/lib/armv6k/fpu/libg.a(lib_a-svfiscanf.o)
 .comment       0x0000000000000000       0x23 /opt/devkitpro/devkitARM/lib/gcc/arm-none-eabi/4.9.2/../../../../arm-none-eabi/lib/armv6k/fpu/libg.a(lib_a-svfprintf.o)
 .comment       0x0000000000000000       0x23 /opt/devkitpro/devkitARM/lib/gcc/arm-none-eabi/4.9.2/../../../../arm-none-eabi/lib/armv6k/fpu/libg.a(lib_a-ungetc.o)
 .comment       0x0000000000000000       0x23 /opt/devkitpro/devkitARM/lib/gcc/arm-none-eabi/4.9.2/../../../../arm-none-eabi/lib/armv6k/fpu/libg.a(lib_a-wbuf.o)
 .comment       0x0000000000000000       0x23 /opt/devkitpro/devkitARM/lib/gcc/arm-none-eabi/4.9.2/../../../../arm-none-eabi/lib/armv6k/fpu/libg.a(lib_a-wcsnrtombs.o)
 .comment       0x0000000000000000       0x23 /opt/devkitpro/devkitARM/lib/gcc/arm-none-eabi/4.9.2/../../../../arm-none-eabi/lib/armv6k/fpu/libg.a(lib_a-callocr.o)
 .comment       0x0000000000000000       0x23 /opt/devkitpro/devkitARM/lib/gcc/arm-none-eabi/4.9.2/../../../../arm-none-eabi/lib/armv6k/fpu/libg.a(lib_a-fclose.o)
 .comment       0x0000000000000000       0x23 /opt/devkitpro/devkitARM/lib/gcc/arm-none-eabi/4.9.2/../../../../arm-none-eabi/lib/armv6k/fpu/libg.a(lib_a-gdtoa-gethex.o)
 .comment       0x0000000000000000       0x23 /opt/devkitpro/devkitARM/lib/gcc/arm-none-eabi/4.9.2/../../../../arm-none-eabi/lib/armv6k/fpu/libg.a(lib_a-gdtoa-hexnan.o)
 .comment       0x0000000000000000       0x23 /opt/devkitpro/devkitARM/lib/gcc/arm-none-eabi/4.9.2/../../../../arm-none-eabi/lib/armv6k/fpu/libg.a(lib_a-getenv_r.o)
 .comment       0x0000000000000000       0x23 /opt/devkitpro/devkitARM/lib/gcc/arm-none-eabi/4.9.2/../../../../arm-none-eabi/lib/armv6k/fpu/libg.a(lib_a-environ.o)
 .comment       0x0000000000000000       0x23 /opt/devkitpro/devkitARM/lib/gcc/arm-none-eabi/4.9.2/../../../../arm-none-eabi/lib/armv6k/fpu/libg.a(lib_a-envlock.o)
 .comment       0x0000000000000000       0x23 /opt/devkitpro/devkitARM/lib/gcc/arm-none-eabi/4.9.2/../../../../arm-none-eabi/lib/armv6k/fpu/libsysbase.a(iosupport.o)
 .comment       0x0000000000000000       0x23 /opt/devkitpro/devkitARM/lib/gcc/arm-none-eabi/4.9.2/../../../../arm-none-eabi/lib/armv6k/fpu/libsysbase.a(close.o)
 .comment       0x0000000000000000       0x23 /opt/devkitpro/devkitARM/lib/gcc/arm-none-eabi/4.9.2/../../../../arm-none-eabi/lib/armv6k/fpu/libsysbase.a(fstat.o)
 .comment       0x0000000000000000       0x23 /opt/devkitpro/devkitARM/lib/gcc/arm-none-eabi/4.9.2/../../../../arm-none-eabi/lib/armv6k/fpu/libsysbase.a(isatty.o)
 .comment       0x0000000000000000       0x23 /opt/devkitpro/devkitARM/lib/gcc/arm-none-eabi/4.9.2/../../../../arm-none-eabi/lib/armv6k/fpu/libsysbase.a(lseek.o)
 .comment       0x0000000000000000       0x23 /opt/devkitpro/devkitARM/lib/gcc/arm-none-eabi/4.9.2/../../../../arm-none-eabi/lib/armv6k/fpu/libsysbase.a(read.o)
 .comment       0x0000000000000000       0x23 /opt/devkitpro/devkitARM/lib/gcc/arm-none-eabi/4.9.2/../../../../arm-none-eabi/lib/armv6k/fpu/libsysbase.a(sbrk.o)
 .comment       0x0000000000000000       0x23 /opt/devkitpro/devkitARM/lib/gcc/arm-none-eabi/4.9.2/../../../../arm-none-eabi/lib/armv6k/fpu/libsysbase.a(write.o)
 .comment       0x0000000000000000       0x23 /opt/devkitpro/devkitARM/lib/gcc/arm-none-eabi/4.9.2/../../../../arm-none-eabi/lib/armv6k/fpu/libsysbase.a(malloc_vars.o)
 .comment       0x0000000000000000       0x23 /opt/devkitpro/devkitARM/lib/gcc/arm-none-eabi/4.9.2/../../../../arm-none-eabi/lib/armv6k/fpu/libsysbase.a(chdir.o)
 .comment       0x0000000000000000       0x23 /opt/devkitpro/devkitARM/lib/gcc/arm-none-eabi/4.9.2/../../../../arm-none-eabi/lib/armv6k/fpu/libsysbase.a(flock.o)
 .comment       0x0000000000000000       0x23 /opt/devkitpro/devkitARM/lib/gcc/arm-none-eabi/4.9.2/../../../../arm-none-eabi/lib/armv6k/fpu/libsysbase.a(syscall_support.o)
 .comment       0x0000000000000000       0x23 /opt/devkitpro/devkitARM/lib/gcc/arm-none-eabi/4.9.2/../../../../arm-none-eabi/lib/armv6k/fpu/libsysbase.a(handle_manager.o)
 .comment       0x0000000000000000       0x23 /opt/devkitpro/devkitARM/lib/gcc/arm-none-eabi/4.9.2/../../../../arm-none-eabi/lib/armv6k/fpu/libsysbase.a(getreent.o)
 .comment       0x0000000000000000       0x23 /opt/devkitpro/devkitARM/lib/gcc/arm-none-eabi/4.9.2/armv6k/fpu/libgcc.a(bpabi.o)
 .comment       0x0000000000000000       0x23 /opt/devkitpro/devkitARM/lib/gcc/arm-none-eabi/4.9.2/armv6k/fpu/libgcc.a(_divdi3.o)
 .comment       0x0000000000000000       0x23 /opt/devkitpro/devkitARM/lib/gcc/arm-none-eabi/4.9.2/armv6k/fpu/libgcc.a(_udivdi3.o)
 .comment       0x0000000000000000       0x23 /opt/devkitpro/devkitARM/lib/gcc/arm-none-eabi/4.9.2/../../../../arm-none-eabi/lib/armv6k/fpu/libg.a(lib_a-errno.o)
 .comment       0x0000000000000000       0x23 /opt/devkitpro/devkitARM/lib/gcc/arm-none-eabi/4.9.2/../../../../arm-none-eabi/lib/armv6k/fpu/libg.a(lib_a-strnlen.o)
 .comment       0x0000000000000000       0x23 /opt/devkitpro/devkitARM/lib/gcc/arm-none-eabi/4.9.2/../../../../arm-none-eabi/lib/armv6k/fpu/libg.a(lib_a-strrchr.o)
 .comment       0x0000000000000000       0x23 /opt/devkitpro/devkitARM/lib/gcc/arm-none-eabi/4.9.2/armv6k/fpu/crtend.o

Memory Configuration

Name             Origin             Length             Attributes
*default*        0x0000000000000000 0xffffffffffffffff

Linker script and memory map

                0x0000000000100000                . = 0x100000
                0x0000000000100000                __start__ = .

.text           0x0000000000100000    0x2a4fc
 *(.crt0)
 .crt0          0x0000000000100000       0x94 /opt/devkitpro/devkitARM/lib/gcc/arm-none-eabi/4.9.2/../../../../arm-none-eabi/lib/armv6k/fpu/3dsx_crt0.o
                0x0000000000100000                _start
                0x0000000000100008                __service_ptr
                0x000000000010000c                __apt_appid
                0x0000000000100010                __heap_size
                0x0000000000100014                __linear_heap_size
                0x0000000000100018                __system_arglist
                0x000000000010001c                __system_runflags
 *(.init)
 .init          0x0000000000100094        0xc /opt/devkitpro/devkitARM/lib/gcc/arm-none-eabi/4.9.2/armv6k/fpu/crti.o
                0x0000000000100094                _init
 .init          0x00000000001000a0        0xc /opt/devkitpro/devkitARM/lib/gcc/arm-none-eabi/4.9.2/armv6k/fpu/crtn.o
                0x00000000001000ac                . = ALIGN (0x4)
 *(.text)
 .text          0x00000000001000ac        0x0 /opt/devkitpro/devkitARM/lib/gcc/arm-none-eabi/4.9.2/../../../../arm-none-eabi/lib/armv6k/fpu/3dsx_crt0.o
 .text          0x00000000001000ac        0x0 /opt/devkitpro/devkitARM/lib/gcc/arm-none-eabi/4.9.2/armv6k/fpu/crti.o
 .text          0x00000000001000ac      0x108 /opt/devkitpro/devkitARM/lib/gcc/arm-none-eabi/4.9.2/armv6k/fpu/crtbegin.o
 .text          0x00000000001001b4       0x80 main.o
                0x00000000001001b4                printPos
                0x00000000001001dc                printLine
 *fill*         0x0000000000100234        0x4 
 .text          0x0000000000100238      0x288 /opt/devkitpro/libctru/lib/libctru.a(os.o)
                0x0000000000100290                osConvertVirtToPhys
                0x00000000001002dc                osConvertOldLINEARMemToNew
                0x00000000001002fc                __libctru_gtod
                0x00000000001003f4                osGetTime
                0x0000000000100468                osGetFirmVersion
                0x000000000010047c                osGetKernelVersion
                0x0000000000100490                osStrError
                0x00000000001004b0                osGetWifiStrength
 .text          0x00000000001004c0     0x1074 /opt/devkitpro/libctru/lib/libctru.a(console.o)
                0x00000000001004c0                debug_write
                0x00000000001004dc                consoleGetDefault
                0x00000000001004e8                consoleDebugInit
                0x000000000010056c                consoleSelect
                0x0000000000100584                consoleSetFont
                0x00000000001005a0                consoleDrawChar
                0x000000000010074c                consolePrintChar
                0x00000000001009f8                consoleInit
                0x0000000000100cec                con_write
                0x00000000001014f0                consoleClear
                0x00000000001014fc                consoleSetWindow
 .text          0x0000000000101534      0x72c /opt/devkitpro/libctru/lib/libctru.a(gfx.o)
                0x00000000001015c0                gfxSet3D
                0x00000000001015d0                gfxSetScreenFormat
                0x00000000001015e8                gfxGetScreenFormat
                0x0000000000101600                gfxSetDoubleBuffering
                0x0000000000101614                gfxSetFramebufferInfo
                0x0000000000101684                gfxWriteFramebufferInfo
                0x0000000000101748                gfxInit
                0x0000000000101928                gfxInitDefault
                0x0000000000101938                gfxExit
                0x0000000000101a04                gfxGetFramebuffer
                0x0000000000101ab4                gfxFlushBuffers
                0x0000000000101b90                gfxSwapBuffers
                0x0000000000101c04                gfxSwapBuffersGpu
 .text          0x0000000000101c60      0x8c8 /opt/devkitpro/libctru/lib/libctru.a(gsp.o)
                0x0000000000101d6c                gspInit
                0x0000000000101d80                gspExit
                0x0000000000101d98                gspInitEventHandler
                0x0000000000101e64                gspExitEventHandler
                0x0000000000101ebc                gspWaitForEvent
                0x0000000000101f14                GSPGPU_WriteHWRegs
                0x0000000000101f84                GSPGPU_WriteHWRegsWithMask
                0x0000000000102010                GSPGPU_ReadHWRegs
                0x0000000000102080                GSPGPU_SetBufferSwap
                0x00000000001020f4                GSPGPU_FlushDataCache
                0x0000000000102148                GSPGPU_InvalidateDataCache
                0x000000000010219c                GSPGPU_SetLcdForceBlack
                0x00000000001021d8                GSPGPU_TriggerCmdReqQueue
                0x000000000010220c                GSPGPU_RegisterInterruptRelayQueue
                0x0000000000102278                GSPGPU_UnregisterInterruptRelayQueue
                0x00000000001022ac                GSPGPU_AcquireRight
                0x00000000001022fc                GSPGPU_ReleaseRight
                0x0000000000102330                GSPGPU_ImportDisplayCaptureInfo
                0x00000000001023b4                GSPGPU_SaveVramSysArea
                0x00000000001023e8                GSPGPU_RestoreVramSysArea
                0x000000000010241c                GSPGPU_SubmitGxCommand
 .text          0x0000000000102528     0x1cf8 /opt/devkitpro/libctru/lib/libctru.a(apt.o)
                0x000000000010258c                _aptDebug
                0x0000000000102590                aptInitCaptureInfo
                0x0000000000102640                aptWaitStatusEvent
                0x0000000000102668                aptHook
                0x00000000001026a0                aptUnhook
                0x00000000001026cc                aptGetStatus
                0x0000000000102704                aptSetStatus
                0x0000000000102768                aptGetStatusPower
                0x00000000001027a0                aptSetStatusPower
                0x00000000001027d8                aptOpenSession
                0x00000000001027fc                aptCloseSession
                0x0000000000102824                aptSignalReadyForSleep
                0x0000000000102834                APT_GetLockHandle
                0x0000000000102884                APT_Initialize
                0x00000000001028ec                APT_Finalize
                0x0000000000102928                APT_HardwareResetAsync
                0x000000000010295c                APT_Enable
                0x0000000000102998                APT_GetAppletManInfo
                0x0000000000102a18                aptGetMenuAppID
                0x0000000000102a54                APT_IsRegistered
                0x0000000000102aa4                APT_InquireNotification
                0x0000000000102af4                APT_PrepareToJumpToHomeMenu
                0x0000000000102b28                APT_JumpToHomeMenu
                0x0000000000102b78                APT_PrepareToJumpToApplication
                0x0000000000102bb4                APT_JumpToApplication
                0x0000000000102c04                APT_NotifyToWait
                0x0000000000102c40                APT_AppletUtility
                0x0000000000102cc8                aptAppletUtility_Exit_RetToApp
                0x0000000000102de8                aptAppletClosed
                0x0000000000102f24                aptInit
                0x00000000001030dc                APT_GlanceParameter
                0x0000000000103150                APT_ReceiveParameter
                0x00000000001031c4                APT_SendParameter
                0x0000000000103234                APT_SendCaptureBufferInfo
                0x0000000000103280                aptReturnToMenu
                0x0000000000103454                APT_ReplySleepQuery
                0x0000000000103494                APT_ReplySleepNotificationComplete
                0x00000000001034d0                aptEventHandler
                0x00000000001037dc                APT_PrepareToCloseApplication
                0x0000000000103818                APT_CloseApplication
                0x0000000000103870                aptExit
                0x0000000000103a5c                APT_SetAppCpuTimeLimit
                0x0000000000103aa0                APT_GetAppCpuTimeLimit
                0x0000000000103af4                APT_CheckNew3DS_Application
                0x0000000000103b50                APT_CheckNew3DS_System
                0x0000000000103bac                APT_CheckNew3DS
                0x0000000000103c20                APT_PrepareToDoAppJump
                0x0000000000103c6c                APT_DoAppJump
                0x0000000000103cd4                APT_PrepareToStartLibraryApplet
                0x0000000000103d10                APT_StartLibraryApplet
                0x0000000000103d70                aptAppletStarted
                0x0000000000103e74                aptMainLoop
                0x0000000000103fec                APT_LaunchLibraryApplet
                0x0000000000104184                APT_PrepareToStartSystemApplet
                0x00000000001041c0                APT_StartSystemApplet
 .text          0x0000000000104220      0x264 /opt/devkitpro/libctru/lib/libctru.a(gx.o)
                0x0000000000104220                GX_RequestDma
                0x0000000000104274                GX_SetCommandList_Last
                0x00000000001042dc                GX_SetMemoryFill
                0x0000000000104350                GX_SetDisplayTransfer
                0x00000000001043b4                GX_SetTextureCopy
                0x000000000010441c                GX_SetCommandList_First
 .text          0x0000000000104484       0x4c /opt/devkitpro/libctru/lib/libctru.a(initSystem.o)
                0x0000000000104484                __libctru_init
 .text          0x00000000001044d0       0xa4 /opt/devkitpro/libctru/lib/libctru.a(allocateHeaps.o)
                0x00000000001044d0                __system_allocateHeaps
 .text          0x0000000000104574       0xf4 /opt/devkitpro/libctru/lib/libctru.a(initArgv.o)
                0x0000000000104574                __system_initArgv
 *fill*         0x0000000000104668        0x8 
 .text          0x0000000000104670      0x3d0 /opt/devkitpro/libctru/lib/libctru.a(svc.o)
                0x0000000000104670                svcControlMemory
                0x0000000000104690                svcQueryMemory
                0x00000000001046c0                svcExitProcess
                0x00000000001046c8                svcCreateThread
                0x00000000001046e8                svcExitThread
                0x00000000001046f0                svcSleepThread
                0x00000000001046f8                svcGetThreadPriority
                0x000000000010470c                svcSetThreadPriority
                0x0000000000104714                svcGetThreadAffinityMask
                0x000000000010471c                svcSetThreadAffinityMask
                0x0000000000104724                svcGetThreadIdealProcessor
                0x0000000000104738                svcSetThreadIdealProcessor
                0x0000000000104740                svcGetProcessorID
                0x0000000000104748                svcCreateMutex
                0x000000000010475c                svcReleaseMutex
                0x0000000000104764                svcCreateSemaphore
                0x0000000000104778                svcReleaseSemaphore
                0x000000000010478c                svcCreateEvent
                0x00000000001047a0                svcSignalEvent
                0x00000000001047a8                svcClearEvent
                0x00000000001047b0                svcCreateTimer
                0x00000000001047c4                svcSetTimer
                0x00000000001047cc                svcCancelTimer
                0x00000000001047d4                svcClearTimer
                0x00000000001047dc                svcCreateMemoryBlock
                0x00000000001047f4                svcMapMemoryBlock
                0x00000000001047fc                svcUnmapMemoryBlock
                0x0000000000104804                svcCreateAddressArbiter
                0x0000000000104818                svcArbitrateAddress
                0x0000000000104838                svcCloseHandle
                0x0000000000104840                svcWaitSynchronization
                0x0000000000104848                svcWaitSynchronizationN
                0x0000000000104870                svcDuplicateHandle
                0x0000000000104884                svcGetSystemTick
                0x000000000010488c                svcGetSystemInfo
                0x00000000001048a4                svcGetProcessInfo
                0x00000000001048bc                svcGetThreadInfo
                0x00000000001048d4                svcConnectToPort
                0x00000000001048e8                svcSendSyncRequest
                0x00000000001048f0                svcOpenProcess
                0x0000000000104904                svcOpenThread
                0x0000000000104918                svcGetProcessId
                0x000000000010492c                svcGetProcessIdOfThread
                0x0000000000104940                svcGetThreadId
                0x0000000000104954                svcOutputDebugString
                0x000000000010495c                svcCreatePort
                0x000000000010497c                svcDebugActiveProcess
                0x0000000000104990                svcBreakDebugProcess
                0x0000000000104998                svcTerminateDebugProcess
                0x00000000001049a0                svcGetProcessDebugEvent
                0x00000000001049a8                svcContinueDebugEvent
                0x00000000001049b0                svcGetProcessList
                0x00000000001049d0                svcReadProcessMemory
                0x00000000001049d8                svcWriteProcessMemory
                0x00000000001049e0                svcControlProcessMemory
                0x00000000001049f8                svcMapProcessMemory
                0x0000000000104a00                svcUnmapProcessMemory
                0x0000000000104a08                svcBackdoor
                0x0000000000104a10                svcQueryProcessMemory
 .text          0x0000000000104a40       0x64 /opt/devkitpro/libctru/lib/libctru.a(stack_adjust.o)
                0x0000000000104a40                initSystem
                0x0000000000104a84                __ctru_exit
 .text          0x0000000000104aa4        0x0 /opt/devkitpro/libctru/lib/libctru.a(default_font.bin.o)
 .text          0x0000000000104aa4      0x1c4 /opt/devkitpro/libctru/lib/libctru.a(vram.o)
                0x0000000000104acc                vramMemAlign
                0x0000000000104bfc                vramAlloc
                0x0000000000104c04                vramRealloc
                0x0000000000104c0c                vramFree
                0x0000000000104c5c                vramSpaceFree
 .text          0x0000000000104c68      0x1d4 /opt/devkitpro/libctru/lib/libctru.a(linear.o)
                0x0000000000104c90                linearMemAlign
                0x0000000000104dd0                linearAlloc
                0x0000000000104dd8                linearRealloc
                0x0000000000104de0                linearFree
                0x0000000000104e30                linearSpaceFree
 .text          0x0000000000104e3c      0x35c /opt/devkitpro/libctru/lib/libctru.a(mem_pool.o)
                0x0000000000104e3c                MemPool::CoalesceRight(MemBlock*)
                0x0000000000104edc                MemPool::Allocate(MemChunk&, unsigned long, int)
                0x0000000000105064                MemPool::Deallocate(MemChunk const&)
                0x0000000000105168                MemPool::GetFreeSpace()
 .text          0x0000000000105198      0x3b8 /opt/devkitpro/libctru/lib/libctru.a(srv.o)
                0x0000000000105198                __get_handle_from_list
                0x0000000000105230                __destroy_handle_list
                0x0000000000105284                srvExit
                0x00000000001052ac                srvGetSessionHandle
                0x00000000001052b8                srvRegisterClient
                0x00000000001052f0                srvInit
                0x0000000000105358                srvGetServiceHandle
                0x00000000001053d8                srvRegisterService
                0x0000000000105434                srvUnregisterService
                0x0000000000105480                srvPmInit
                0x00000000001054d4                srvRegisterProcess
                0x000000000010551c                srvUnregisterProcess
 .text          0x0000000000105550       0x14 /opt/devkitpro/libctru/lib/libctru.a(rbtree_init.o)
                0x0000000000105550                rbtree_init
 .text          0x0000000000105564      0x1f4 /opt/devkitpro/libctru/lib/libctru.a(rbtree_insert.o)
                0x0000000000105748                rbtree_insert
                0x0000000000105750                rbtree_insert_multi
 .text          0x0000000000105758       0xac /opt/devkitpro/libctru/lib/libctru.a(rbtree_rotate.o)
                0x0000000000105758                rbtree_rotate
 .text          0x0000000000105804      0x340 /opt/devkitpro/libctru/lib/libctru.a(rbtree_remove.o)
                0x0000000000105804                rbtree_remove
 .text          0x0000000000105b44       0x70 /opt/devkitpro/libctru/lib/libctru.a(rbtree_find.o)
                0x0000000000105b44                rbtree_find
 .text          0x0000000000105bb4       0x20 /opt/devkitpro/libctru/lib/libctru.a(appInit.o)
                0x0000000000105bb4                __appInit
 .text          0x0000000000105bd4       0x1c /opt/devkitpro/libctru/lib/libctru.a(appExit.o)
                0x0000000000105bd4                __appExit
 .text          0x0000000000105bf0       0x90 /opt/devkitpro/libctru/lib/libctru.a(ctru_exit.o)
                0x0000000000105bf0                __libctru_exit
 .text          0x0000000000105c80      0xffc /opt/devkitpro/libctru/lib/libctru.a(sdmc_dev.o)
                0x0000000000106afc                sdmcInit
                0x0000000000106c2c                sdmcExit
 .text          0x0000000000106c7c      0x6f4 /opt/devkitpro/libctru/lib/libctru.a(hid.o)
                0x0000000000106c7c                hidExit
                0x0000000000106d20                hidWaitForEvent
                0x0000000000106d78                hidCheckSectionUpdateTime
                0x0000000000106db4                hidScanInput
                0x0000000000106fe8                hidKeysHeld
                0x0000000000106ff8                hidKeysDown
                0x0000000000107008                hidKeysUp
                0x0000000000107018                hidTouchRead
                0x0000000000107030                hidCircleRead
                0x0000000000107048                hidAccelRead
                0x0000000000107068                hidGyroRead
                0x0000000000107088                HIDUSER_GetHandles
                0x0000000000107118                hidInit
                0x000000000010724c                HIDUSER_EnableAccelerometer
                0x0000000000107278                HIDUSER_DisableAccelerometer
                0x00000000001072a4                HIDUSER_EnableGyroscope
                0x00000000001072d0                HIDUSER_DisableGyroscope
                0x00000000001072fc                HIDUSER_GetGyroscopeRawToDpsCoefficient
                0x0000000000107338                HIDUSER_GetSoundVolume
 .text          0x0000000000107370      0xc88 /opt/devkitpro/libctru/lib/libctru.a(fs.o)
                0x0000000000107370                FS_makePath
                0x000000000010739c                fsExit
                0x00000000001073c0                fsGetSessionHandle
                0x00000000001073cc                FSUSER_Initialize
                0x0000000000107440                fsInit
                0x00000000001074ac                FSUSER_OpenFile
                0x0000000000107558                FSUSER_OpenFileDirectly
                0x0000000000107624                FSUSER_DeleteFile
                0x00000000001076ac                FSUSER_RenameFile
                0x0000000000107770                FSUSER_DeleteDirectory
                0x00000000001077f8                FSUSER_DeleteDirectoryRecursively
                0x0000000000107880                FSUSER_CreateFile
                0x0000000000107918                FSUSER_CreateDirectory
                0x00000000001079a4                FSUSER_RenameDirectory
                0x0000000000107a68                FSUSER_OpenDirectory
                0x0000000000107afc                FSUSER_OpenArchive
                0x0000000000107b84                FSUSER_CloseArchive
                0x0000000000107bdc                FSUSER_GetSdmcArchiveResource
                0x0000000000107c58                FSUSER_GetNandArchiveResource
                0x0000000000107cd4                FSUSER_IsSdmcDetected
                0x0000000000107d20                FSUSER_IsSdmcWritable
                0x0000000000107d6c                FSFILE_Close
                0x0000000000107db0                FSFILE_Read
                0x0000000000107e0c                FSFILE_Write
                0x0000000000107e70                FSFILE_GetSize
                0x0000000000107eb0                FSFILE_SetSize
                0x0000000000107edc                FSFILE_GetAttributes
                0x0000000000107f14                FSFILE_SetAttributes
                0x0000000000107f3c                FSFILE_Flush
                0x0000000000107f60                FSDIR_Read
                0x0000000000107fb4                FSDIR_Close
 .text          0x0000000000107ff8      0x118 /opt/devkitpro/libctru/lib/libctru.a(rbtree_iterator.o)
                0x0000000000107ff8                rbtree_node_next
                0x0000000000108084                rbtree_node_prev
 .text          0x0000000000108110       0xb8 /opt/devkitpro/libctru/lib/libctru.a(utf8_to_utf16.o)
                0x0000000000108110                utf8_to_utf16
 .text          0x00000000001081c8      0x138 /opt/devkitpro/libctru/lib/libctru.a(decode_utf8.o)
                0x00000000001081c8                decode_utf8
 .text          0x0000000000108300       0xe8 /opt/devkitpro/libctru/lib/libctru.a(utf16_to_utf8.o)
                0x0000000000108300                utf16_to_utf8
 .text          0x00000000001083e8      0x388 /opt/devkitpro/libctru/lib/libctru.a(irrst.o)
                0x00000000001083e8                irrstWaitForEvent
                0x0000000000108434                irrstCheckSectionUpdateTime
                0x0000000000108470                irrstScanInput
                0x0000000000108524                irrstKeysHeld
                0x000000000010853c                irrstCstickRead
                0x0000000000108554                IRRST_GetHandles
                0x00000000001085a4                IRRST_Initialize
                0x00000000001085dc                irrstInit
                0x00000000001086c0                IRRST_Shutdown
                0x00000000001086ec                irrstExit
 .text          0x0000000000108770       0x68 /opt/devkitpro/libctru/lib/libctru.a(encode_utf16.o)
                0x0000000000108770                encode_utf16
 .text          0x00000000001087d8      0x104 /opt/devkitpro/libctru/lib/libctru.a(encode_utf8.o)
                0x00000000001087d8                encode_utf8
 .text          0x00000000001088dc       0x60 /opt/devkitpro/libctru/lib/libctru.a(decode_utf16.o)
                0x00000000001088dc                decode_utf16
 .text          0x000000000010893c      0x240 /opt/devkitpro/devkitARM/lib/gcc/arm-none-eabi/4.9.2/armv6k/fpu/libgcc.a(_divsi3.o)
                0x000000000010893c                __aeabi_idiv
                0x000000000010893c                __divsi3
                0x0000000000108b5c                __aeabi_idivmod
 .text          0x0000000000108b7c        0x4 /opt/devkitpro/devkitARM/lib/gcc/arm-none-eabi/4.9.2/armv6k/fpu/libgcc.a(_dvmd_tls.o)
                0x0000000000108b7c                __aeabi_ldiv0
                0x0000000000108b7c                __aeabi_idiv0
 .text          0x0000000000108b80        0x0 /opt/devkitpro/devkitARM/lib/gcc/arm-none-eabi/4.9.2/../../../../arm-none-eabi/lib/armv6k/fpu/libg.a(lib_a-bsearch.o)
 .text          0x0000000000108b80        0x0 /opt/devkitpro/devkitARM/lib/gcc/arm-none-eabi/4.9.2/../../../../arm-none-eabi/lib/armv6k/fpu/libg.a(lib_a-fini.o)
 .text          0x0000000000108b80        0x0 /opt/devkitpro/devkitARM/lib/gcc/arm-none-eabi/4.9.2/../../../../arm-none-eabi/lib/armv6k/fpu/libg.a(lib_a-init.o)
 .text          0x0000000000108b80        0x0 /opt/devkitpro/devkitARM/lib/gcc/arm-none-eabi/4.9.2/../../../../arm-none-eabi/lib/armv6k/fpu/libg.a(lib_a-iprintf.o)
 .text          0x0000000000108b80        0x0 /opt/devkitpro/devkitARM/lib/gcc/arm-none-eabi/4.9.2/../../../../arm-none-eabi/lib/armv6k/fpu/libg.a(lib_a-malloc.o)
 .text          0x0000000000108b80        0x0 /opt/devkitpro/devkitARM/lib/gcc/arm-none-eabi/4.9.2/../../../../arm-none-eabi/lib/armv6k/fpu/libg.a(lib_a-mallocr.o)
 .text          0x0000000000108b80        0x0 /opt/devkitpro/devkitARM/lib/gcc/arm-none-eabi/4.9.2/../../../../arm-none-eabi/lib/armv6k/fpu/libg.a(lib_a-memcpy.o)
 .text          0x0000000000108b80        0x0 /opt/devkitpro/devkitARM/lib/gcc/arm-none-eabi/4.9.2/../../../../arm-none-eabi/lib/armv6k/fpu/libg.a(lib_a-memset.o)
 .text          0x0000000000108b80        0x0 /opt/devkitpro/devkitARM/lib/gcc/arm-none-eabi/4.9.2/../../../../arm-none-eabi/lib/armv6k/fpu/libg.a(lib_a-mlock.o)
 .text          0x0000000000108b80        0x0 /opt/devkitpro/devkitARM/lib/gcc/arm-none-eabi/4.9.2/../../../../arm-none-eabi/lib/armv6k/fpu/libg.a(lib_a-printf.o)
 .text          0x0000000000108b80        0x0 /opt/devkitpro/devkitARM/lib/gcc/arm-none-eabi/4.9.2/../../../../arm-none-eabi/lib/armv6k/fpu/libg.a(lib_a-setvbuf.o)
 .text          0x0000000000108b80        0x0 /opt/devkitpro/devkitARM/lib/gcc/arm-none-eabi/4.9.2/../../../../arm-none-eabi/lib/armv6k/fpu/libg.a(lib_a-sscanf.o)
 .text          0x0000000000108b80        0x0 /opt/devkitpro/devkitARM/lib/gcc/arm-none-eabi/4.9.2/../../../../arm-none-eabi/lib/armv6k/fpu/libg.a(lib_a-stdio.o)
 .text          0x0000000000108b80        0x0 /opt/devkitpro/devkitARM/lib/gcc/arm-none-eabi/4.9.2/../../../../arm-none-eabi/lib/armv6k/fpu/libg.a(lib_a-strchr.o)
 .text          0x0000000000108b80        0x0 /opt/devkitpro/devkitARM/lib/gcc/arm-none-eabi/4.9.2/../../../../arm-none-eabi/lib/armv6k/fpu/libg.a(lib_a-strcpy.o)
 .text          0x0000000000108b80        0x0 /opt/devkitpro/devkitARM/lib/gcc/arm-none-eabi/4.9.2/../../../../arm-none-eabi/lib/armv6k/fpu/libg.a(lib_a-strlen.o)
 .text          0x0000000000108b80        0x0 /opt/devkitpro/devkitARM/lib/gcc/arm-none-eabi/4.9.2/../../../../arm-none-eabi/lib/armv6k/fpu/libg.a(lib_a-strncat.o)
 .text          0x0000000000108b80        0x0 /opt/devkitpro/devkitARM/lib/gcc/arm-none-eabi/4.9.2/../../../../arm-none-eabi/lib/armv6k/fpu/libg.a(lib_a-strncpy.o)
 .text          0x0000000000108b80        0x0 /opt/devkitpro/devkitARM/lib/gcc/arm-none-eabi/4.9.2/../../../../arm-none-eabi/lib/armv6k/fpu/libg.a(lib_a-svfscanf.o)
 .text          0x0000000000108b80        0x0 /opt/devkitpro/devkitARM/lib/gcc/arm-none-eabi/4.9.2/../../../../arm-none-eabi/lib/armv6k/fpu/libg.a(lib_a-vfiprintf.o)
 .text          0x0000000000108b80        0x0 /opt/devkitpro/devkitARM/lib/gcc/arm-none-eabi/4.9.2/../../../../arm-none-eabi/lib/armv6k/fpu/libg.a(lib_a-vfprintf.o)
 .text          0x0000000000108b80        0x0 /opt/devkitpro/devkitARM/lib/gcc/arm-none-eabi/4.9.2/../../../../arm-none-eabi/lib/armv6k/fpu/libg.a(lib_a-wcrtomb.o)
 .text          0x0000000000108b80        0x0 /opt/devkitpro/devkitARM/lib/gcc/arm-none-eabi/4.9.2/../../../../arm-none-eabi/lib/armv6k/fpu/libg.a(lib_a-wcsrtombs.o)
 .text          0x0000000000108b80        0x0 /opt/devkitpro/devkitARM/lib/gcc/arm-none-eabi/4.9.2/../../../../arm-none-eabi/lib/armv6k/fpu/libg.a(lib_a-wctomb_r.o)
 .text          0x0000000000108b80        0x0 /opt/devkitpro/devkitARM/lib/gcc/arm-none-eabi/4.9.2/../../../../arm-none-eabi/lib/armv6k/fpu/libg.a(lib_a-wsetup.o)
 .text          0x0000000000108b80        0x0 /opt/devkitpro/devkitARM/lib/gcc/arm-none-eabi/4.9.2/../../../../arm-none-eabi/lib/armv6k/fpu/libg.a(lib_a-ctype_.o)
 .text          0x0000000000108b80        0x0 /opt/devkitpro/devkitARM/lib/gcc/arm-none-eabi/4.9.2/../../../../arm-none-eabi/lib/armv6k/fpu/libg.a(lib_a-dtoa.o)
 .text          0x0000000000108b80        0x0 /opt/devkitpro/devkitARM/lib/gcc/arm-none-eabi/4.9.2/../../../../arm-none-eabi/lib/armv6k/fpu/libg.a(lib_a-fflush.o)
 .text          0x0000000000108b80        0x0 /opt/devkitpro/devkitARM/lib/gcc/arm-none-eabi/4.9.2/../../../../arm-none-eabi/lib/armv6k/fpu/libg.a(lib_a-findfp.o)
 .text          0x0000000000108b80        0x0 /opt/devkitpro/devkitARM/lib/gcc/arm-none-eabi/4.9.2/../../../../arm-none-eabi/lib/armv6k/fpu/libg.a(lib_a-fputwc.o)
 .text          0x0000000000108b80        0x0 /opt/devkitpro/devkitARM/lib/gcc/arm-none-eabi/4.9.2/../../../../arm-none-eabi/lib/armv6k/fpu/libg.a(lib_a-freer.o)
 .text          0x0000000000108b80        0x0 /opt/devkitpro/devkitARM/lib/gcc/arm-none-eabi/4.9.2/../../../../arm-none-eabi/lib/armv6k/fpu/libg.a(lib_a-fvwrite.o)
 .text          0x0000000000108b80        0x0 /opt/devkitpro/devkitARM/lib/gcc/arm-none-eabi/4.9.2/../../../../arm-none-eabi/lib/armv6k/fpu/libg.a(lib_a-fwalk.o)
 .text          0x0000000000108b80        0x0 /opt/devkitpro/devkitARM/lib/gcc/arm-none-eabi/4.9.2/../../../../arm-none-eabi/lib/armv6k/fpu/libg.a(lib_a-impure.o)
 .text          0x0000000000108b80        0x0 /opt/devkitpro/devkitARM/lib/gcc/arm-none-eabi/4.9.2/../../../../arm-none-eabi/lib/armv6k/fpu/libg.a(lib_a-iswspace.o)
 .text          0x0000000000108b80        0x0 /opt/devkitpro/devkitARM/lib/gcc/arm-none-eabi/4.9.2/../../../../arm-none-eabi/lib/armv6k/fpu/libg.a(lib_a-jp2uc.o)
 .text          0x0000000000108b80        0x0 /opt/devkitpro/devkitARM/lib/gcc/arm-none-eabi/4.9.2/../../../../arm-none-eabi/lib/armv6k/fpu/libg.a(lib_a-locale.o)
 .text          0x0000000000108b80        0x0 /opt/devkitpro/devkitARM/lib/gcc/arm-none-eabi/4.9.2/../../../../arm-none-eabi/lib/armv6k/fpu/libg.a(lib_a-makebuf.o)
 .text          0x0000000000108b80        0x0 /opt/devkitpro/devkitARM/lib/gcc/arm-none-eabi/4.9.2/../../../../arm-none-eabi/lib/armv6k/fpu/libg.a(lib_a-mbrtowc.o)
 .text          0x0000000000108b80        0x0 /opt/devkitpro/devkitARM/lib/gcc/arm-none-eabi/4.9.2/../../../../arm-none-eabi/lib/armv6k/fpu/libg.a(lib_a-mbtowc_r.o)
 .text          0x0000000000108b80        0x0 /opt/devkitpro/devkitARM/lib/gcc/arm-none-eabi/4.9.2/../../../../arm-none-eabi/lib/armv6k/fpu/libg.a(lib_a-memchr.o)
 .text          0x0000000000108b80        0x0 /opt/devkitpro/devkitARM/lib/gcc/arm-none-eabi/4.9.2/../../../../arm-none-eabi/lib/armv6k/fpu/libg.a(lib_a-memmove.o)
 .text          0x0000000000108b80        0x0 /opt/devkitpro/devkitARM/lib/gcc/arm-none-eabi/4.9.2/../../../../arm-none-eabi/lib/armv6k/fpu/libg.a(lib_a-mprec.o)
 .text          0x0000000000108b80        0x0 /opt/devkitpro/devkitARM/lib/gcc/arm-none-eabi/4.9.2/../../../../arm-none-eabi/lib/armv6k/fpu/libg.a(lib_a-reallocr.o)
 .text          0x0000000000108b80        0x0 /opt/devkitpro/devkitARM/lib/gcc/arm-none-eabi/4.9.2/../../../../arm-none-eabi/lib/armv6k/fpu/libg.a(lib_a-sccl.o)
 .text          0x0000000000108b80        0x0 /opt/devkitpro/devkitARM/lib/gcc/arm-none-eabi/4.9.2/../../../../arm-none-eabi/lib/armv6k/fpu/libg.a(lib_a-sf_nan.o)
 .text          0x0000000000108b80        0x0 /opt/devkitpro/devkitARM/lib/gcc/arm-none-eabi/4.9.2/../../../../arm-none-eabi/lib/armv6k/fpu/libg.a(lib_a-s_fpclassify.o)
 .text          0x0000000000108b80        0x0 /opt/devkitpro/devkitARM/lib/gcc/arm-none-eabi/4.9.2/../../../../arm-none-eabi/lib/armv6k/fpu/libg.a(lib_a-s_frexp.o)
 .text          0x0000000000108b80        0x0 /opt/devkitpro/devkitARM/lib/gcc/arm-none-eabi/4.9.2/../../../../arm-none-eabi/lib/armv6k/fpu/libg.a(lib_a-sprintf.o)
 .text          0x0000000000108b80        0x0 /opt/devkitpro/devkitARM/lib/gcc/arm-none-eabi/4.9.2/../../../../arm-none-eabi/lib/armv6k/fpu/libg.a(lib_a-stpncpy.o)
 .text          0x0000000000108b80        0x0 /opt/devkitpro/devkitARM/lib/gcc/arm-none-eabi/4.9.2/../../../../arm-none-eabi/lib/armv6k/fpu/libg.a(lib_a-strcasecmp.o)
 .text          0x0000000000108b80        0x0 /opt/devkitpro/devkitARM/lib/gcc/arm-none-eabi/4.9.2/../../../../arm-none-eabi/lib/armv6k/fpu/libg.a(lib_a-strcat.o)
 .text          0x0000000000108b80      0x3a0 /opt/devkitpro/devkitARM/lib/gcc/arm-none-eabi/4.9.2/../../../../arm-none-eabi/lib/armv6k/fpu/libg.a(lib_a-strcmp.o)
                0x0000000000108b88                strcmp
 .text          0x0000000000108f20        0x0 /opt/devkitpro/devkitARM/lib/gcc/arm-none-eabi/4.9.2/../../../../arm-none-eabi/lib/armv6k/fpu/libg.a(lib_a-strlcpy.o)
 .text          0x0000000000108f20        0x0 /opt/devkitpro/devkitARM/lib/gcc/arm-none-eabi/4.9.2/../../../../arm-none-eabi/lib/armv6k/fpu/libg.a(lib_a-strncasecmp.o)
 .text          0x0000000000108f20        0x0 /opt/devkitpro/devkitARM/lib/gcc/arm-none-eabi/4.9.2/../../../../arm-none-eabi/lib/armv6k/fpu/libg.a(lib_a-strncmp.o)
 .text          0x0000000000108f20        0x0 /opt/devkitpro/devkitARM/lib/gcc/arm-none-eabi/4.9.2/../../../../arm-none-eabi/lib/armv6k/fpu/libg.a(lib_a-strtod.o)
 .text          0x0000000000108f20        0x0 /opt/devkitpro/devkitARM/lib/gcc/arm-none-eabi/4.9.2/../../../../arm-none-eabi/lib/armv6k/fpu/libg.a(lib_a-strtoll_r.o)
 .text          0x0000000000108f20        0x0 /opt/devkitpro/devkitARM/lib/gcc/arm-none-eabi/4.9.2/../../../../arm-none-eabi/lib/armv6k/fpu/libg.a(lib_a-strtol.o)
 .text          0x0000000000108f20        0x0 /opt/devkitpro/devkitARM/lib/gcc/arm-none-eabi/4.9.2/../../../../arm-none-eabi/lib/armv6k/fpu/libg.a(lib_a-strtoull_r.o)
 .text          0x0000000000108f20        0x0 /opt/devkitpro/devkitARM/lib/gcc/arm-none-eabi/4.9.2/../../../../arm-none-eabi/lib/armv6k/fpu/libg.a(lib_a-strtoul.o)
 .text          0x0000000000108f20        0x0 /opt/devkitpro/devkitARM/lib/gcc/arm-none-eabi/4.9.2/../../../../arm-none-eabi/lib/armv6k/fpu/libg.a(lib_a-svfiprintf.o)
 .text          0x0000000000108f20        0x0 /opt/devkitpro/devkitARM/lib/gcc/arm-none-eabi/4.9.2/../../../../arm-none-eabi/lib/armv6k/fpu/libg.a(lib_a-svfiscanf.o)
 .text          0x0000000000108f20        0x0 /opt/devkitpro/devkitARM/lib/gcc/arm-none-eabi/4.9.2/../../../../arm-none-eabi/lib/armv6k/fpu/libg.a(lib_a-svfprintf.o)
 .text          0x0000000000108f20        0x0 /opt/devkitpro/devkitARM/lib/gcc/arm-none-eabi/4.9.2/../../../../arm-none-eabi/lib/armv6k/fpu/libg.a(lib_a-ungetc.o)
 .text          0x0000000000108f20        0x0 /opt/devkitpro/devkitARM/lib/gcc/arm-none-eabi/4.9.2/../../../../arm-none-eabi/lib/armv6k/fpu/libg.a(lib_a-wbuf.o)
 .text          0x0000000000108f20        0x0 /opt/devkitpro/devkitARM/lib/gcc/arm-none-eabi/4.9.2/../../../../arm-none-eabi/lib/armv6k/fpu/libg.a(lib_a-wcsnrtombs.o)
 .text          0x0000000000108f20        0x0 /opt/devkitpro/devkitARM/lib/gcc/arm-none-eabi/4.9.2/../../../../arm-none-eabi/lib/armv6k/fpu/libg.a(lib_a-callocr.o)
 .text          0x0000000000108f20        0x0 /opt/devkitpro/devkitARM/lib/gcc/arm-none-eabi/4.9.2/../../../../arm-none-eabi/lib/armv6k/fpu/libg.a(lib_a-fclose.o)
 .text          0x0000000000108f20        0x0 /opt/devkitpro/devkitARM/lib/gcc/arm-none-eabi/4.9.2/../../../../arm-none-eabi/lib/armv6k/fpu/libg.a(lib_a-gdtoa-gethex.o)
 .text          0x0000000000108f20        0x0 /opt/devkitpro/devkitARM/lib/gcc/arm-none-eabi/4.9.2/../../../../arm-none-eabi/lib/armv6k/fpu/libg.a(lib_a-gdtoa-hexnan.o)
 .text          0x0000000000108f20        0x0 /opt/devkitpro/devkitARM/lib/gcc/arm-none-eabi/4.9.2/../../../../arm-none-eabi/lib/armv6k/fpu/libg.a(lib_a-getenv_r.o)
 .text          0x0000000000108f20        0x0 /opt/devkitpro/devkitARM/lib/gcc/arm-none-eabi/4.9.2/../../../../arm-none-eabi/lib/armv6k/fpu/libg.a(lib_a-environ.o)
 .text          0x0000000000108f20        0x0 /opt/devkitpro/devkitARM/lib/gcc/arm-none-eabi/4.9.2/../../../../arm-none-eabi/lib/armv6k/fpu/libg.a(lib_a-envlock.o)
 .text          0x0000000000108f20      0x1a8 /opt/devkitpro/devkitARM/lib/gcc/arm-none-eabi/4.9.2/../../../../arm-none-eabi/lib/armv6k/fpu/libsysbase.a(iosupport.o)
                0x0000000000108f20                setDefaultDevice
                0x0000000000108f38                FindDevice
                0x0000000000108fe4                RemoveDevice
                0x0000000000109010                AddDevice
                0x00000000001090a4                GetDeviceOpTab
 .text          0x00000000001090c8       0x7c /opt/devkitpro/devkitARM/lib/gcc/arm-none-eabi/4.9.2/../../../../arm-none-eabi/lib/armv6k/fpu/libsysbase.a(close.o)
                0x00000000001090c8                _close_r
 .text          0x0000000000109144       0x6c /opt/devkitpro/devkitARM/lib/gcc/arm-none-eabi/4.9.2/../../../../arm-none-eabi/lib/armv6k/fpu/libsysbase.a(fstat.o)
                0x0000000000109144                _fstat_r
 .text          0x00000000001091b0        0x8 /opt/devkitpro/devkitARM/lib/gcc/arm-none-eabi/4.9.2/../../../../arm-none-eabi/lib/armv6k/fpu/libsysbase.a(isatty.o)
                0x00000000001091b0                _isatty_r
 .text          0x00000000001091b8       0x74 /opt/devkitpro/devkitARM/lib/gcc/arm-none-eabi/4.9.2/../../../../arm-none-eabi/lib/armv6k/fpu/libsysbase.a(lseek.o)
                0x00000000001091b8                _lseek_r
 .text          0x000000000010922c       0x74 /opt/devkitpro/devkitARM/lib/gcc/arm-none-eabi/4.9.2/../../../../arm-none-eabi/lib/armv6k/fpu/libsysbase.a(read.o)
                0x000000000010922c                _read_r
 .text          0x00000000001092a0       0x70 /opt/devkitpro/devkitARM/lib/gcc/arm-none-eabi/4.9.2/../../../../arm-none-eabi/lib/armv6k/fpu/libsysbase.a(sbrk.o)
                0x00000000001092a0                _sbrk_r
 .text          0x0000000000109310       0x74 /opt/devkitpro/devkitARM/lib/gcc/arm-none-eabi/4.9.2/../../../../arm-none-eabi/lib/armv6k/fpu/libsysbase.a(write.o)
                0x0000000000109310                _write_r
 .text          0x0000000000109384        0x0 /opt/devkitpro/devkitARM/lib/gcc/arm-none-eabi/4.9.2/../../../../arm-none-eabi/lib/armv6k/fpu/libsysbase.a(malloc_vars.o)
 .text          0x0000000000109384      0x3a4 /opt/devkitpro/devkitARM/lib/gcc/arm-none-eabi/4.9.2/../../../../arm-none-eabi/lib/armv6k/fpu/libsysbase.a(chdir.o)
                0x0000000000109384                _concatenate_path
                0x0000000000109540                chdir
                0x0000000000109688                getcwd
 .text          0x0000000000109728        0x8 /opt/devkitpro/devkitARM/lib/gcc/arm-none-eabi/4.9.2/../../../../arm-none-eabi/lib/armv6k/fpu/libsysbase.a(flock.o)
                0x0000000000109728                __flockfile
                0x000000000010972c                __funlockfile
 .text          0x0000000000109730      0x108 /opt/devkitpro/devkitARM/lib/gcc/arm-none-eabi/4.9.2/../../../../arm-none-eabi/lib/armv6k/fpu/libsysbase.a(syscall_support.o)
                0x0000000000109730                __libc_lock_init
                0x0000000000109748                __libc_lock_acquire
                0x0000000000109760                __libc_lock_try_acquire
                0x0000000000109784                __libc_lock_release
                0x000000000010979c                __libc_lock_close
                0x00000000001097b4                __libc_lock_init_recursive
                0x00000000001097cc                __libc_lock_acquire_recursive
                0x00000000001097e4                __libc_lock_try_acquire_recursive
                0x0000000000109808                __libc_lock_release_recursive
                0x0000000000109820                __libc_lock_close_recursive
 .text          0x0000000000109838      0x254 /opt/devkitpro/devkitARM/lib/gcc/arm-none-eabi/4.9.2/../../../../arm-none-eabi/lib/armv6k/fpu/libsysbase.a(handle_manager.o)
                0x0000000000109838                __free_handle
                0x000000000010987c                __release_handle
                0x00000000001098a8                __alloc_handle
                0x0000000000109910                __get_handle
                0x000000000010992c                dup
                0x00000000001099b8                dup2
 .text          0x0000000000109a8c       0x28 /opt/devkitpro/devkitARM/lib/gcc/arm-none-eabi/4.9.2/../../../../arm-none-eabi/lib/armv6k/fpu/libsysbase.a(getreent.o)
                0x0000000000109a8c                __getreent
 .text          0x0000000000109ab4      0x20c /opt/devkitpro/devkitARM/lib/gcc/arm-none-eabi/4.9.2/armv6k/fpu/libgcc.a(_udivsi3.o)
                0x0000000000109ab4                __udivsi3
                0x0000000000109ab4                __aeabi_uidiv
                0x0000000000109ca0                __aeabi_uidivmod
 .text          0x0000000000109cc0       0x3c /opt/devkitpro/devkitARM/lib/gcc/arm-none-eabi/4.9.2/armv6k/fpu/libgcc.a(_aeabi_uldivmod.o)
                0x0000000000109cc0                __aeabi_uldivmod
 .text          0x0000000000109cfc       0x78 /opt/devkitpro/devkitARM/lib/gcc/arm-none-eabi/4.9.2/armv6k/fpu/libgcc.a(bpabi.o)
                0x0000000000109cfc                __gnu_ldivmod_helper
                0x0000000000109d38                __gnu_uldivmod_helper
 .text          0x0000000000109d74      0x180 /opt/devkitpro/devkitARM/lib/gcc/arm-none-eabi/4.9.2/armv6k/fpu/libgcc.a(_divdi3.o)
                0x0000000000109d74                __divdi3
 .text          0x0000000000109ef4      0x124 /opt/devkitpro/devkitARM/lib/gcc/arm-none-eabi/4.9.2/armv6k/fpu/libgcc.a(_udivdi3.o)
                0x0000000000109ef4                __udivdi3
 .text          0x000000000010a018        0x0 /opt/devkitpro/devkitARM/lib/gcc/arm-none-eabi/4.9.2/../../../../arm-none-eabi/lib/armv6k/fpu/libg.a(lib_a-errno.o)
 .text          0x000000000010a018        0x0 /opt/devkitpro/devkitARM/lib/gcc/arm-none-eabi/4.9.2/../../../../arm-none-eabi/lib/armv6k/fpu/libg.a(lib_a-strnlen.o)
 .text          0x000000000010a018        0x0 /opt/devkitpro/devkitARM/lib/gcc/arm-none-eabi/4.9.2/../../../../arm-none-eabi/lib/armv6k/fpu/libg.a(lib_a-strrchr.o)
 .text          0x000000000010a018        0x0 /opt/devkitpro/devkitARM/lib/gcc/arm-none-eabi/4.9.2/armv6k/fpu/crtend.o
 .text          0x000000000010a018        0x0 /opt/devkitpro/devkitARM/lib/gcc/arm-none-eabi/4.9.2/armv6k/fpu/crtn.o
 *(.text.*)
 .text.startup  0x000000000010a018      0x150 main.o
                0x000000000010a018                main
 .text.bsearch  0x000000000010a168       0x78 /opt/devkitpro/devkitARM/lib/gcc/arm-none-eabi/4.9.2/../../../../arm-none-eabi/lib/armv6k/fpu/libg.a(lib_a-bsearch.o)
                0x000000000010a168                bsearch
 .text.__libc_fini_array
                0x000000000010a1e0       0x40 /opt/devkitpro/devkitARM/lib/gcc/arm-none-eabi/4.9.2/../../../../arm-none-eabi/lib/armv6k/fpu/libg.a(lib_a-fini.o)
                0x000000000010a1e0                __libc_fini_array
 .text.__libc_init_array
                0x000000000010a220       0x78 /opt/devkitpro/devkitARM/lib/gcc/arm-none-eabi/4.9.2/../../../../arm-none-eabi/lib/armv6k/fpu/libg.a(lib_a-init.o)
                0x000000000010a220                __libc_init_array
 .text.iprintf  0x000000000010a298       0x38 /opt/devkitpro/devkitARM/lib/gcc/arm-none-eabi/4.9.2/../../../../arm-none-eabi/lib/armv6k/fpu/libg.a(lib_a-iprintf.o)
                0x000000000010a298                iprintf
 .text._iprintf_r
                0x000000000010a2d0       0x34 /opt/devkitpro/devkitARM/lib/gcc/arm-none-eabi/4.9.2/../../../../arm-none-eabi/lib/armv6k/fpu/libg.a(lib_a-iprintf.o)
                0x000000000010a2d0                _iprintf_r
 .text.malloc   0x000000000010a304       0x18 /opt/devkitpro/devkitARM/lib/gcc/arm-none-eabi/4.9.2/../../../../arm-none-eabi/lib/armv6k/fpu/libg.a(lib_a-malloc.o)
                0x000000000010a304                malloc
 .text.free     0x000000000010a31c       0x18 /opt/devkitpro/devkitARM/lib/gcc/arm-none-eabi/4.9.2/../../../../arm-none-eabi/lib/armv6k/fpu/libg.a(lib_a-malloc.o)
                0x000000000010a31c                free
 .text._malloc_r
                0x000000000010a334      0x740 /opt/devkitpro/devkitARM/lib/gcc/arm-none-eabi/4.9.2/../../../../arm-none-eabi/lib/armv6k/fpu/libg.a(lib_a-mallocr.o)
                0x000000000010a334                _malloc_r
 .text.memcpy   0x000000000010aa74       0xf4 /opt/devkitpro/devkitARM/lib/gcc/arm-none-eabi/4.9.2/../../../../arm-none-eabi/lib/armv6k/fpu/libg.a(lib_a-memcpy.o)
                0x000000000010aa74                memcpy
 .text.memset   0x000000000010ab68       0xf0 /opt/devkitpro/devkitARM/lib/gcc/arm-none-eabi/4.9.2/../../../../arm-none-eabi/lib/armv6k/fpu/libg.a(lib_a-memset.o)
                0x000000000010ab68                memset
 .text.__malloc_lock
                0x000000000010ac58        0x4 /opt/devkitpro/devkitARM/lib/gcc/arm-none-eabi/4.9.2/../../../../arm-none-eabi/lib/armv6k/fpu/libg.a(lib_a-mlock.o)
                0x000000000010ac58                __malloc_lock
 .text.__malloc_unlock
                0x000000000010ac5c        0x4 /opt/devkitpro/devkitARM/lib/gcc/arm-none-eabi/4.9.2/../../../../arm-none-eabi/lib/armv6k/fpu/libg.a(lib_a-mlock.o)
                0x000000000010ac5c                __malloc_unlock
 .text._printf_r
                0x000000000010ac60       0x34 /opt/devkitpro/devkitARM/lib/gcc/arm-none-eabi/4.9.2/../../../../arm-none-eabi/lib/armv6k/fpu/libg.a(lib_a-printf.o)
                0x000000000010ac60                _printf_r
 .text.printf   0x000000000010ac94       0x38 /opt/devkitpro/devkitARM/lib/gcc/arm-none-eabi/4.9.2/../../../../arm-none-eabi/lib/armv6k/fpu/libg.a(lib_a-printf.o)
                0x000000000010ac94                printf
 .text.setvbuf  0x000000000010accc      0x1e8 /opt/devkitpro/devkitARM/lib/gcc/arm-none-eabi/4.9.2/../../../../arm-none-eabi/lib/armv6k/fpu/libg.a(lib_a-setvbuf.o)
                0x000000000010accc                setvbuf
 .text.sscanf   0x000000000010aeb4       0x74 /opt/devkitpro/devkitARM/lib/gcc/arm-none-eabi/4.9.2/../../../../arm-none-eabi/lib/armv6k/fpu/libg.a(lib_a-sscanf.o)
                0x000000000010aeb4                sscanf
 .text._sscanf_r
                0x000000000010af28       0x80 /opt/devkitpro/devkitARM/lib/gcc/arm-none-eabi/4.9.2/../../../../arm-none-eabi/lib/armv6k/fpu/libg.a(lib_a-sscanf.o)
                0x000000000010af28                _sscanf_r
 .text.__sread  0x000000000010afa8       0x30 /opt/devkitpro/devkitARM/lib/gcc/arm-none-eabi/4.9.2/../../../../arm-none-eabi/lib/armv6k/fpu/libg.a(lib_a-stdio.o)
                0x000000000010afa8                __sread
 .text.__seofread
                0x000000000010afd8        0x8 /opt/devkitpro/devkitARM/lib/gcc/arm-none-eabi/4.9.2/../../../../arm-none-eabi/lib/armv6k/fpu/libg.a(lib_a-stdio.o)
                0x000000000010afd8                __seofread
 .text.__swrite
                0x000000000010afe0       0x54 /opt/devkitpro/devkitARM/lib/gcc/arm-none-eabi/4.9.2/../../../../arm-none-eabi/lib/armv6k/fpu/libg.a(lib_a-stdio.o)
                0x000000000010afe0                __swrite
 .text.__sseek  0x000000000010b034       0x2c /opt/devkitpro/devkitARM/lib/gcc/arm-none-eabi/4.9.2/../../../../arm-none-eabi/lib/armv6k/fpu/libg.a(lib_a-stdio.o)
                0x000000000010b034                __sseek
 .text.__sclose
                0x000000000010b060        0x8 /opt/devkitpro/devkitARM/lib/gcc/arm-none-eabi/4.9.2/../../../../arm-none-eabi/lib/armv6k/fpu/libg.a(lib_a-stdio.o)
                0x000000000010b060                __sclose
 .text.strchr   0x000000000010b068      0x16c /opt/devkitpro/devkitARM/lib/gcc/arm-none-eabi/4.9.2/../../../../arm-none-eabi/lib/armv6k/fpu/libg.a(lib_a-strchr.o)
                0x000000000010b068                strchr
 .text.strcpy   0x000000000010b1d4       0xf0 /opt/devkitpro/devkitARM/lib/gcc/arm-none-eabi/4.9.2/../../../../arm-none-eabi/lib/armv6k/fpu/libg.a(lib_a-strcpy.o)
                0x000000000010b1d4                strcpy
 .text.strlen   0x000000000010b2c4       0x5c /opt/devkitpro/devkitARM/lib/gcc/arm-none-eabi/4.9.2/../../../../arm-none-eabi/lib/armv6k/fpu/libg.a(lib_a-strlen.o)
                0x000000000010b2c4                strlen
 .text.strncat  0x000000000010b320       0xa4 /opt/devkitpro/devkitARM/lib/gcc/arm-none-eabi/4.9.2/../../../../arm-none-eabi/lib/armv6k/fpu/libg.a(lib_a-strncat.o)
                0x000000000010b320                strncat
 .text.strncpy  0x000000000010b3c4       0xe0 /opt/devkitpro/devkitARM/lib/gcc/arm-none-eabi/4.9.2/../../../../arm-none-eabi/lib/armv6k/fpu/libg.a(lib_a-strncpy.o)
                0x000000000010b3c4                strncpy
 .text.__ssvfscanf_r
                0x000000000010b4a4     0x2aec /opt/devkitpro/devkitARM/lib/gcc/arm-none-eabi/4.9.2/../../../../arm-none-eabi/lib/armv6k/fpu/libg.a(lib_a-svfscanf.o)
                0x000000000010b4a4                __ssvfscanf_r
 .text.get_arg  0x000000000010df90      0x860 /opt/devkitpro/devkitARM/lib/gcc/arm-none-eabi/4.9.2/../../../../arm-none-eabi/lib/armv6k/fpu/libg.a(lib_a-vfiprintf.o)
 .text.__sprint_r.part.0
                0x000000000010e7f0       0xa4 /opt/devkitpro/devkitARM/lib/gcc/arm-none-eabi/4.9.2/../../../../arm-none-eabi/lib/armv6k/fpu/libg.a(lib_a-vfiprintf.o)
 .text.__sprint_r
                0x000000000010e894       0x1c /opt/devkitpro/devkitARM/lib/gcc/arm-none-eabi/4.9.2/../../../../arm-none-eabi/lib/armv6k/fpu/libg.a(lib_a-vfiprintf.o)
                0x000000000010e894                __sprint_r
 .text._vfiprintf_r
                0x000000000010e8b0     0x3114 /opt/devkitpro/devkitARM/lib/gcc/arm-none-eabi/4.9.2/../../../../arm-none-eabi/lib/armv6k/fpu/libg.a(lib_a-vfiprintf.o)
                0x000000000010e8b0                _vfiprintf_r
 .text.vfiprintf
                0x00000000001119c4       0x28 /opt/devkitpro/devkitARM/lib/gcc/arm-none-eabi/4.9.2/../../../../arm-none-eabi/lib/armv6k/fpu/libg.a(lib_a-vfiprintf.o)
                0x00000000001119c4                vfiprintf
 .text.__sbprintf
                0x00000000001119ec       0xa8 /opt/devkitpro/devkitARM/lib/gcc/arm-none-eabi/4.9.2/../../../../arm-none-eabi/lib/armv6k/fpu/libg.a(lib_a-vfiprintf.o)
 .text.get_arg  0x0000000000111a94      0x860 /opt/devkitpro/devkitARM/lib/gcc/arm-none-eabi/4.9.2/../../../../arm-none-eabi/lib/armv6k/fpu/libg.a(lib_a-vfprintf.o)
 *fill*         0x00000000001122f4        0x4 
 .text._vfprintf_r
                0x00000000001122f8     0x4408 /opt/devkitpro/devkitARM/lib/gcc/arm-none-eabi/4.9.2/../../../../arm-none-eabi/lib/armv6k/fpu/libg.a(lib_a-vfprintf.o)
                0x00000000001122f8                _vfprintf_r
 .text.vfprintf
                0x0000000000116700       0x28 /opt/devkitpro/devkitARM/lib/gcc/arm-none-eabi/4.9.2/../../../../arm-none-eabi/lib/armv6k/fpu/libg.a(lib_a-vfprintf.o)
                0x0000000000116700                vfprintf
 .text.__sbprintf
                0x0000000000116728       0xa8 /opt/devkitpro/devkitARM/lib/gcc/arm-none-eabi/4.9.2/../../../../arm-none-eabi/lib/armv6k/fpu/libg.a(lib_a-vfprintf.o)
 .text._wcrtomb_r
                0x00000000001167d0       0x8c /opt/devkitpro/devkitARM/lib/gcc/arm-none-eabi/4.9.2/../../../../arm-none-eabi/lib/armv6k/fpu/libg.a(lib_a-wcrtomb.o)
                0x00000000001167d0                _wcrtomb_r
 .text.wcrtomb  0x000000000011685c       0x94 /opt/devkitpro/devkitARM/lib/gcc/arm-none-eabi/4.9.2/../../../../arm-none-eabi/lib/armv6k/fpu/libg.a(lib_a-wcrtomb.o)
                0x000000000011685c                wcrtomb
 .text._wcsrtombs_r
                0x00000000001168f0       0x20 /opt/devkitpro/devkitARM/lib/gcc/arm-none-eabi/4.9.2/../../../../arm-none-eabi/lib/armv6k/fpu/libg.a(lib_a-wcsrtombs.o)
                0x00000000001168f0                _wcsrtombs_r
 .text.wcsrtombs
                0x0000000000116910       0x3c /opt/devkitpro/devkitARM/lib/gcc/arm-none-eabi/4.9.2/../../../../arm-none-eabi/lib/armv6k/fpu/libg.a(lib_a-wcsrtombs.o)
                0x0000000000116910                wcsrtombs
 .text.__utf8_wctomb
                0x000000000011694c      0x114 /opt/devkitpro/devkitARM/lib/gcc/arm-none-eabi/4.9.2/../../../../arm-none-eabi/lib/armv6k/fpu/libg.a(lib_a-wctomb_r.o)
                0x000000000011694c                __utf8_wctomb
 .text._wctomb_r
                0x0000000000116a60       0x48 /opt/devkitpro/devkitARM/lib/gcc/arm-none-eabi/4.9.2/../../../../arm-none-eabi/lib/armv6k/fpu/libg.a(lib_a-wctomb_r.o)
                0x0000000000116a60                _wctomb_r
 .text.__ascii_wctomb
                0x0000000000116aa8       0x28 /opt/devkitpro/devkitARM/lib/gcc/arm-none-eabi/4.9.2/../../../../arm-none-eabi/lib/armv6k/fpu/libg.a(lib_a-wctomb_r.o)
                0x0000000000116aa8                __ascii_wctomb
 .text.__sjis_wctomb
                0x0000000000116ad0       0x84 /opt/devkitpro/devkitARM/lib/gcc/arm-none-eabi/4.9.2/../../../../arm-none-eabi/lib/armv6k/fpu/libg.a(lib_a-wctomb_r.o)
                0x0000000000116ad0                __sjis_wctomb
 .text.__eucjp_wctomb
                0x0000000000116b54       0xc8 /opt/devkitpro/devkitARM/lib/gcc/arm-none-eabi/4.9.2/../../../../arm-none-eabi/lib/armv6k/fpu/libg.a(lib_a-wctomb_r.o)
                0x0000000000116b54                __eucjp_wctomb
 .text.__jis_wctomb
                0x0000000000116c1c       0xd4 /opt/devkitpro/devkitARM/lib/gcc/arm-none-eabi/4.9.2/../../../../arm-none-eabi/lib/armv6k/fpu/libg.a(lib_a-wctomb_r.o)
                0x0000000000116c1c                __jis_wctomb
 .text.__swsetup_r
                0x0000000000116cf0      0x14c /opt/devkitpro/devkitARM/lib/gcc/arm-none-eabi/4.9.2/../../../../arm-none-eabi/lib/armv6k/fpu/libg.a(lib_a-wsetup.o)
                0x0000000000116cf0                __swsetup_r
 .text.__set_ctype
                0x0000000000116e3c       0x18 /opt/devkitpro/devkitARM/lib/gcc/arm-none-eabi/4.9.2/../../../../arm-none-eabi/lib/armv6k/fpu/libg.a(lib_a-ctype_.o)
                0x0000000000116e3c                __set_ctype
 .text.quorem   0x0000000000116e54      0x1c0 /opt/devkitpro/devkitARM/lib/gcc/arm-none-eabi/4.9.2/../../../../arm-none-eabi/lib/armv6k/fpu/libg.a(lib_a-dtoa.o)
 *fill*         0x0000000000117014        0x4 
 .text._dtoa_r  0x0000000000117018     0x12e0 /opt/devkitpro/devkitARM/lib/gcc/arm-none-eabi/4.9.2/../../../../arm-none-eabi/lib/armv6k/fpu/libg.a(lib_a-dtoa.o)
                0x0000000000117018                _dtoa_r
 .text.__sflush_r
                0x00000000001182f8      0x238 /opt/devkitpro/devkitARM/lib/gcc/arm-none-eabi/4.9.2/../../../../arm-none-eabi/lib/armv6k/fpu/libg.a(lib_a-fflush.o)
                0x00000000001182f8                __sflush_r
 .text._fflush_r
                0x0000000000118530       0x98 /opt/devkitpro/devkitARM/lib/gcc/arm-none-eabi/4.9.2/../../../../arm-none-eabi/lib/armv6k/fpu/libg.a(lib_a-fflush.o)
                0x0000000000118530                _fflush_r
 .text.fflush   0x00000000001185c8       0x38 /opt/devkitpro/devkitARM/lib/gcc/arm-none-eabi/4.9.2/../../../../arm-none-eabi/lib/armv6k/fpu/libg.a(lib_a-fflush.o)
                0x00000000001185c8                fflush
 .text._cleanup_r
                0x0000000000118600        0xc /opt/devkitpro/devkitARM/lib/gcc/arm-none-eabi/4.9.2/../../../../arm-none-eabi/lib/armv6k/fpu/libg.a(lib_a-findfp.o)
                0x0000000000118600                _cleanup_r
 .text.__fp_lock
                0x000000000011860c       0x1c /opt/devkitpro/devkitARM/lib/gcc/arm-none-eabi/4.9.2/../../../../arm-none-eabi/lib/armv6k/fpu/libg.a(lib_a-findfp.o)
 .text.__fp_unlock
                0x0000000000118628       0x1c /opt/devkitpro/devkitARM/lib/gcc/arm-none-eabi/4.9.2/../../../../arm-none-eabi/lib/armv6k/fpu/libg.a(lib_a-findfp.o)
 .text.__sinit.part.1
                0x0000000000118644      0x15c /opt/devkitpro/devkitARM/lib/gcc/arm-none-eabi/4.9.2/../../../../arm-none-eabi/lib/armv6k/fpu/libg.a(lib_a-findfp.o)
 .text.__sfmoreglue
                0x00000000001187a0       0x48 /opt/devkitpro/devkitARM/lib/gcc/arm-none-eabi/4.9.2/../../../../arm-none-eabi/lib/armv6k/fpu/libg.a(lib_a-findfp.o)
                0x00000000001187a0                __sfmoreglue
 .text.__sfp    0x00000000001187e8       0xe8 /opt/devkitpro/devkitARM/lib/gcc/arm-none-eabi/4.9.2/../../../../arm-none-eabi/lib/armv6k/fpu/libg.a(lib_a-findfp.o)
                0x00000000001187e8                __sfp
 .text._cleanup
                0x00000000001188d0       0x18 /opt/devkitpro/devkitARM/lib/gcc/arm-none-eabi/4.9.2/../../../../arm-none-eabi/lib/armv6k/fpu/libg.a(lib_a-findfp.o)
                0x00000000001188d0                _cleanup
 .text.__sinit  0x00000000001188e8       0x10 /opt/devkitpro/devkitARM/lib/gcc/arm-none-eabi/4.9.2/../../../../arm-none-eabi/lib/armv6k/fpu/libg.a(lib_a-findfp.o)
                0x00000000001188e8                __sinit
 .text.__sfp_lock_acquire
                0x00000000001188f8        0x4 /opt/devkitpro/devkitARM/lib/gcc/arm-none-eabi/4.9.2/../../../../arm-none-eabi/lib/armv6k/fpu/libg.a(lib_a-findfp.o)
                0x00000000001188f8                __sfp_lock_acquire
 .text.__sfp_lock_release
                0x00000000001188fc        0x4 /opt/devkitpro/devkitARM/lib/gcc/arm-none-eabi/4.9.2/../../../../arm-none-eabi/lib/armv6k/fpu/libg.a(lib_a-findfp.o)
                0x00000000001188fc                __sfp_lock_release
 .text.__sinit_lock_acquire
                0x0000000000118900        0x4 /opt/devkitpro/devkitARM/lib/gcc/arm-none-eabi/4.9.2/../../../../arm-none-eabi/lib/armv6k/fpu/libg.a(lib_a-findfp.o)
                0x0000000000118900                __sinit_lock_acquire
 .text.__sinit_lock_release
                0x0000000000118904        0x4 /opt/devkitpro/devkitARM/lib/gcc/arm-none-eabi/4.9.2/../../../../arm-none-eabi/lib/armv6k/fpu/libg.a(lib_a-findfp.o)
                0x0000000000118904                __sinit_lock_release
 .text.__fp_lock_all
                0x0000000000118908       0x18 /opt/devkitpro/devkitARM/lib/gcc/arm-none-eabi/4.9.2/../../../../arm-none-eabi/lib/armv6k/fpu/libg.a(lib_a-findfp.o)
                0x0000000000118908                __fp_lock_all
 .text.__fp_unlock_all
                0x0000000000118920       0x18 /opt/devkitpro/devkitARM/lib/gcc/arm-none-eabi/4.9.2/../../../../arm-none-eabi/lib/armv6k/fpu/libg.a(lib_a-findfp.o)
                0x0000000000118920                __fp_unlock_all
 .text.__fputwc
                0x0000000000118938      0x124 /opt/devkitpro/devkitARM/lib/gcc/arm-none-eabi/4.9.2/../../../../arm-none-eabi/lib/armv6k/fpu/libg.a(lib_a-fputwc.o)
                0x0000000000118938                __fputwc
 .text._fputwc_r
                0x0000000000118a5c       0xa8 /opt/devkitpro/devkitARM/lib/gcc/arm-none-eabi/4.9.2/../../../../arm-none-eabi/lib/armv6k/fpu/libg.a(lib_a-fputwc.o)
                0x0000000000118a5c                _fputwc_r
 .text.fputwc   0x0000000000118b04       0x3c /opt/devkitpro/devkitARM/lib/gcc/arm-none-eabi/4.9.2/../../../../arm-none-eabi/lib/armv6k/fpu/libg.a(lib_a-fputwc.o)
                0x0000000000118b04                fputwc
 .text._malloc_trim_r
                0x0000000000118b40       0xf8 /opt/devkitpro/devkitARM/lib/gcc/arm-none-eabi/4.9.2/../../../../arm-none-eabi/lib/armv6k/fpu/libg.a(lib_a-freer.o)
                0x0000000000118b40                _malloc_trim_r
 .text._free_r  0x0000000000118c38      0x2b4 /opt/devkitpro/devkitARM/lib/gcc/arm-none-eabi/4.9.2/../../../../arm-none-eabi/lib/armv6k/fpu/libg.a(lib_a-freer.o)
                0x0000000000118c38                _free_r
 .text.__sfvwrite_r
                0x0000000000118eec      0x4c4 /opt/devkitpro/devkitARM/lib/gcc/arm-none-eabi/4.9.2/../../../../arm-none-eabi/lib/armv6k/fpu/libg.a(lib_a-fvwrite.o)
                0x0000000000118eec                __sfvwrite_r
 .text._fwalk   0x00000000001193b0       0x78 /opt/devkitpro/devkitARM/lib/gcc/arm-none-eabi/4.9.2/../../../../arm-none-eabi/lib/armv6k/fpu/libg.a(lib_a-fwalk.o)
                0x00000000001193b0                _fwalk
 .text._fwalk_reent
                0x0000000000119428       0x80 /opt/devkitpro/devkitARM/lib/gcc/arm-none-eabi/4.9.2/../../../../arm-none-eabi/lib/armv6k/fpu/libg.a(lib_a-fwalk.o)
                0x0000000000119428                _fwalk_reent
 .text.iswspace
                0x00000000001194a8       0x74 /opt/devkitpro/devkitARM/lib/gcc/arm-none-eabi/4.9.2/../../../../arm-none-eabi/lib/armv6k/fpu/libg.a(lib_a-iswspace.o)
                0x00000000001194a8                iswspace
 .text.__jp2uc  0x000000000011951c      0x204 /opt/devkitpro/devkitARM/lib/gcc/arm-none-eabi/4.9.2/../../../../arm-none-eabi/lib/armv6k/fpu/libg.a(lib_a-jp2uc.o)
 .text._jp2uc   0x0000000000119720       0x84 /opt/devkitpro/devkitARM/lib/gcc/arm-none-eabi/4.9.2/../../../../arm-none-eabi/lib/armv6k/fpu/libg.a(lib_a-jp2uc.o)
                0x0000000000119720                _jp2uc
 .text.__get_locale_env
                0x00000000001197a4       0x8c /opt/devkitpro/devkitARM/lib/gcc/arm-none-eabi/4.9.2/../../../../arm-none-eabi/lib/armv6k/fpu/libg.a(lib_a-locale.o)
 .text.loadlocale
                0x0000000000119830      0x8a4 /opt/devkitpro/devkitARM/lib/gcc/arm-none-eabi/4.9.2/../../../../arm-none-eabi/lib/armv6k/fpu/libg.a(lib_a-locale.o)
 .text.currentlocale
                0x000000000011a0d4       0x88 /opt/devkitpro/devkitARM/lib/gcc/arm-none-eabi/4.9.2/../../../../arm-none-eabi/lib/armv6k/fpu/libg.a(lib_a-locale.o)
 .text._setlocale_r
                0x000000000011a15c      0x300 /opt/devkitpro/devkitARM/lib/gcc/arm-none-eabi/4.9.2/../../../../arm-none-eabi/lib/armv6k/fpu/libg.a(lib_a-locale.o)
                0x000000000011a15c                _setlocale_r
 .text.__locale_charset
                0x000000000011a45c        0xc /opt/devkitpro/devkitARM/lib/gcc/arm-none-eabi/4.9.2/../../../../arm-none-eabi/lib/armv6k/fpu/libg.a(lib_a-locale.o)
                0x000000000011a45c                __locale_charset
 .text.__locale_mb_cur_max
                0x000000000011a468       0x10 /opt/devkitpro/devkitARM/lib/gcc/arm-none-eabi/4.9.2/../../../../arm-none-eabi/lib/armv6k/fpu/libg.a(lib_a-locale.o)
                0x000000000011a468                __locale_mb_cur_max
 .text.__locale_msgcharset
                0x000000000011a478        0xc /opt/devkitpro/devkitARM/lib/gcc/arm-none-eabi/4.9.2/../../../../arm-none-eabi/lib/armv6k/fpu/libg.a(lib_a-locale.o)
                0x000000000011a478                __locale_msgcharset
 .text.__locale_cjk_lang
                0x000000000011a484       0x10 /opt/devkitpro/devkitARM/lib/gcc/arm-none-eabi/4.9.2/../../../../arm-none-eabi/lib/armv6k/fpu/libg.a(lib_a-locale.o)
                0x000000000011a484                __locale_cjk_lang
 .text._localeconv_r
                0x000000000011a494        0xc /opt/devkitpro/devkitARM/lib/gcc/arm-none-eabi/4.9.2/../../../../arm-none-eabi/lib/armv6k/fpu/libg.a(lib_a-locale.o)
                0x000000000011a494                _localeconv_r
 .text.setlocale
                0x000000000011a4a0       0x20 /opt/devkitpro/devkitARM/lib/gcc/arm-none-eabi/4.9.2/../../../../arm-none-eabi/lib/armv6k/fpu/libg.a(lib_a-locale.o)
                0x000000000011a4a0                setlocale
 .text.localeconv
                0x000000000011a4c0       0x14 /opt/devkitpro/devkitARM/lib/gcc/arm-none-eabi/4.9.2/../../../../arm-none-eabi/lib/armv6k/fpu/libg.a(lib_a-locale.o)
                0x000000000011a4c0                localeconv
 .text.__smakebuf_r
                0x000000000011a4d4      0x160 /opt/devkitpro/devkitARM/lib/gcc/arm-none-eabi/4.9.2/../../../../arm-none-eabi/lib/armv6k/fpu/libg.a(lib_a-makebuf.o)
                0x000000000011a4d4                __smakebuf_r
 .text._mbrtowc_r
                0x000000000011a634       0x98 /opt/devkitpro/devkitARM/lib/gcc/arm-none-eabi/4.9.2/../../../../arm-none-eabi/lib/armv6k/fpu/libg.a(lib_a-mbrtowc.o)
                0x000000000011a634                _mbrtowc_r
 .text.mbrtowc  0x000000000011a6cc       0x9c /opt/devkitpro/devkitARM/lib/gcc/arm-none-eabi/4.9.2/../../../../arm-none-eabi/lib/armv6k/fpu/libg.a(lib_a-mbrtowc.o)
                0x000000000011a6cc                mbrtowc
 .text.__utf8_mbtowc
                0x000000000011a768      0x2fc /opt/devkitpro/devkitARM/lib/gcc/arm-none-eabi/4.9.2/../../../../arm-none-eabi/lib/armv6k/fpu/libg.a(lib_a-mbtowc_r.o)
                0x000000000011a768                __utf8_mbtowc
 .text._mbtowc_r
                0x000000000011aa64       0x4c /opt/devkitpro/devkitARM/lib/gcc/arm-none-eabi/4.9.2/../../../../arm-none-eabi/lib/armv6k/fpu/libg.a(lib_a-mbtowc_r.o)
                0x000000000011aa64                _mbtowc_r
 .text.__ascii_mbtowc
                0x000000000011aab0       0x4c /opt/devkitpro/devkitARM/lib/gcc/arm-none-eabi/4.9.2/../../../../arm-none-eabi/lib/armv6k/fpu/libg.a(lib_a-mbtowc_r.o)
                0x000000000011aab0                __ascii_mbtowc
 .text.__sjis_mbtowc
                0x000000000011aafc       0xd4 /opt/devkitpro/devkitARM/lib/gcc/arm-none-eabi/4.9.2/../../../../arm-none-eabi/lib/armv6k/fpu/libg.a(lib_a-mbtowc_r.o)
                0x000000000011aafc                __sjis_mbtowc
 .text.__eucjp_mbtowc
                0x000000000011abd0      0x140 /opt/devkitpro/devkitARM/lib/gcc/arm-none-eabi/4.9.2/../../../../arm-none-eabi/lib/armv6k/fpu/libg.a(lib_a-mbtowc_r.o)
                0x000000000011abd0                __eucjp_mbtowc
 .text.__jis_mbtowc
                0x000000000011ad10      0x1a8 /opt/devkitpro/devkitARM/lib/gcc/arm-none-eabi/4.9.2/../../../../arm-none-eabi/lib/armv6k/fpu/libg.a(lib_a-mbtowc_r.o)
                0x000000000011ad10                __jis_mbtowc
 .text.memchr   0x000000000011aeb8      0x120 /opt/devkitpro/devkitARM/lib/gcc/arm-none-eabi/4.9.2/../../../../arm-none-eabi/lib/armv6k/fpu/libg.a(lib_a-memchr.o)
                0x000000000011aeb8                memchr
 .text.memmove  0x000000000011afd8      0x12c /opt/devkitpro/devkitARM/lib/gcc/arm-none-eabi/4.9.2/../../../../arm-none-eabi/lib/armv6k/fpu/libg.a(lib_a-memmove.o)
                0x000000000011afd8                memmove
 .text._Balloc  0x000000000011b104       0x8c /opt/devkitpro/devkitARM/lib/gcc/arm-none-eabi/4.9.2/../../../../arm-none-eabi/lib/armv6k/fpu/libg.a(lib_a-mprec.o)
                0x000000000011b104                _Balloc
 .text._Bfree   0x000000000011b190       0x1c /opt/devkitpro/devkitARM/lib/gcc/arm-none-eabi/4.9.2/../../../../arm-none-eabi/lib/armv6k/fpu/libg.a(lib_a-mprec.o)
                0x000000000011b190                _Bfree
 .text.__multadd
                0x000000000011b1ac       0xd0 /opt/devkitpro/devkitARM/lib/gcc/arm-none-eabi/4.9.2/../../../../arm-none-eabi/lib/armv6k/fpu/libg.a(lib_a-mprec.o)
                0x000000000011b1ac                __multadd
 .text.__s2b    0x000000000011b27c       0xe4 /opt/devkitpro/devkitARM/lib/gcc/arm-none-eabi/4.9.2/../../../../arm-none-eabi/lib/armv6k/fpu/libg.a(lib_a-mprec.o)
                0x000000000011b27c                __s2b
 .text.__hi0bits
                0x000000000011b360       0x5c /opt/devkitpro/devkitARM/lib/gcc/arm-none-eabi/4.9.2/../../../../arm-none-eabi/lib/armv6k/fpu/libg.a(lib_a-mprec.o)
                0x000000000011b360                __hi0bits
 .text.__lo0bits
                0x000000000011b3bc       0x98 /opt/devkitpro/devkitARM/lib/gcc/arm-none-eabi/4.9.2/../../../../arm-none-eabi/lib/armv6k/fpu/libg.a(lib_a-mprec.o)
                0x000000000011b3bc                __lo0bits
 .text.__i2b    0x000000000011b454       0x20 /opt/devkitpro/devkitARM/lib/gcc/arm-none-eabi/4.9.2/../../../../arm-none-eabi/lib/armv6k/fpu/libg.a(lib_a-mprec.o)
                0x000000000011b454                __i2b
 .text.__multiply
                0x000000000011b474      0x1dc /opt/devkitpro/devkitARM/lib/gcc/arm-none-eabi/4.9.2/../../../../arm-none-eabi/lib/armv6k/fpu/libg.a(lib_a-mprec.o)
                0x000000000011b474                __multiply
 .text.__pow5mult
                0x000000000011b650      0x100 /opt/devkitpro/devkitARM/lib/gcc/arm-none-eabi/4.9.2/../../../../arm-none-eabi/lib/armv6k/fpu/libg.a(lib_a-mprec.o)
                0x000000000011b650                __pow5mult
 .text.__lshift
                0x000000000011b750       0xf4 /opt/devkitpro/devkitARM/lib/gcc/arm-none-eabi/4.9.2/../../../../arm-none-eabi/lib/armv6k/fpu/libg.a(lib_a-mprec.o)
                0x000000000011b750                __lshift
 .text.__mcmp   0x000000000011b844       0x64 /opt/devkitpro/devkitARM/lib/gcc/arm-none-eabi/4.9.2/../../../../arm-none-eabi/lib/armv6k/fpu/libg.a(lib_a-mprec.o)
                0x000000000011b844                __mcmp
 .text.__mdiff  0x000000000011b8a8      0x13c /opt/devkitpro/devkitARM/lib/gcc/arm-none-eabi/4.9.2/../../../../arm-none-eabi/lib/armv6k/fpu/libg.a(lib_a-mprec.o)
                0x000000000011b8a8                __mdiff
 .text.__ulp    0x000000000011b9e4       0x74 /opt/devkitpro/devkitARM/lib/gcc/arm-none-eabi/4.9.2/../../../../arm-none-eabi/lib/armv6k/fpu/libg.a(lib_a-mprec.o)
                0x000000000011b9e4                __ulp
 .text.__b2d    0x000000000011ba58       0xe4 /opt/devkitpro/devkitARM/lib/gcc/arm-none-eabi/4.9.2/../../../../arm-none-eabi/lib/armv6k/fpu/libg.a(lib_a-mprec.o)
                0x000000000011ba58                __b2d
 .text.__d2b    0x000000000011bb3c      0x104 /opt/devkitpro/devkitARM/lib/gcc/arm-none-eabi/4.9.2/../../../../arm-none-eabi/lib/armv6k/fpu/libg.a(lib_a-mprec.o)
                0x000000000011bb3c                __d2b
 .text.__ratio  0x000000000011bc40       0x7c /opt/devkitpro/devkitARM/lib/gcc/arm-none-eabi/4.9.2/../../../../arm-none-eabi/lib/armv6k/fpu/libg.a(lib_a-mprec.o)
                0x000000000011bc40                __ratio
 *fill*         0x000000000011bcbc        0x4 
 .text._mprec_log10
                0x000000000011bcc0       0x48 /opt/devkitpro/devkitARM/lib/gcc/arm-none-eabi/4.9.2/../../../../arm-none-eabi/lib/armv6k/fpu/libg.a(lib_a-mprec.o)
                0x000000000011bcc0                _mprec_log10
 .text.__copybits
                0x000000000011bd08       0x6c /opt/devkitpro/devkitARM/lib/gcc/arm-none-eabi/4.9.2/../../../../arm-none-eabi/lib/armv6k/fpu/libg.a(lib_a-mprec.o)
                0x000000000011bd08                __copybits
 .text.__any_on
                0x000000000011bd74       0x80 /opt/devkitpro/devkitARM/lib/gcc/arm-none-eabi/4.9.2/../../../../arm-none-eabi/lib/armv6k/fpu/libg.a(lib_a-mprec.o)
                0x000000000011bd74                __any_on
 .text._realloc_r
                0x000000000011bdf4      0x564 /opt/devkitpro/devkitARM/lib/gcc/arm-none-eabi/4.9.2/../../../../arm-none-eabi/lib/armv6k/fpu/libg.a(lib_a-reallocr.o)
                0x000000000011bdf4                _realloc_r
 .text.__sccl   0x000000000011c358       0xd8 /opt/devkitpro/devkitARM/lib/gcc/arm-none-eabi/4.9.2/../../../../arm-none-eabi/lib/armv6k/fpu/libg.a(lib_a-sccl.o)
                0x000000000011c358                __sccl
 .text.nanf     0x000000000011c430        0xc /opt/devkitpro/devkitARM/lib/gcc/arm-none-eabi/4.9.2/../../../../arm-none-eabi/lib/armv6k/fpu/libg.a(lib_a-sf_nan.o)
                0x000000000011c430                nanf
 .text.__fpclassifyd
                0x000000000011c43c       0x74 /opt/devkitpro/devkitARM/lib/gcc/arm-none-eabi/4.9.2/../../../../arm-none-eabi/lib/armv6k/fpu/libg.a(lib_a-s_fpclassify.o)
                0x000000000011c43c                __fpclassifyd
 .text.frexp    0x000000000011c4b0       0x98 /opt/devkitpro/devkitARM/lib/gcc/arm-none-eabi/4.9.2/../../../../arm-none-eabi/lib/armv6k/fpu/libg.a(lib_a-s_frexp.o)
                0x000000000011c4b0                frexp
 .text._sprintf_r
                0x000000000011c548       0x68 /opt/devkitpro/devkitARM/lib/gcc/arm-none-eabi/4.9.2/../../../../arm-none-eabi/lib/armv6k/fpu/libg.a(lib_a-sprintf.o)
                0x000000000011c548                _sprintf_r
 .text.sprintf  0x000000000011c5b0       0x68 /opt/devkitpro/devkitARM/lib/gcc/arm-none-eabi/4.9.2/../../../../arm-none-eabi/lib/armv6k/fpu/libg.a(lib_a-sprintf.o)
                0x000000000011c5b0                sprintf
 .text.stpncpy  0x000000000011c618      0x108 /opt/devkitpro/devkitARM/lib/gcc/arm-none-eabi/4.9.2/../../../../arm-none-eabi/lib/armv6k/fpu/libg.a(lib_a-stpncpy.o)
                0x000000000011c618                stpncpy
 .text.strcasecmp
                0x000000000011c720       0x68 /opt/devkitpro/devkitARM/lib/gcc/arm-none-eabi/4.9.2/../../../../arm-none-eabi/lib/armv6k/fpu/libg.a(lib_a-strcasecmp.o)
                0x000000000011c720                strcasecmp
 .text.strcat   0x000000000011c788       0x80 /opt/devkitpro/devkitARM/lib/gcc/arm-none-eabi/4.9.2/../../../../arm-none-eabi/lib/armv6k/fpu/libg.a(lib_a-strcat.o)
                0x000000000011c788                strcat
 .text.strlcpy  0x000000000011c808       0x48 /opt/devkitpro/devkitARM/lib/gcc/arm-none-eabi/4.9.2/../../../../arm-none-eabi/lib/armv6k/fpu/libg.a(lib_a-strlcpy.o)
                0x000000000011c808                strlcpy
 .text.strncasecmp
                0x000000000011c850       0x8c /opt/devkitpro/devkitARM/lib/gcc/arm-none-eabi/4.9.2/../../../../arm-none-eabi/lib/armv6k/fpu/libg.a(lib_a-strncasecmp.o)
                0x000000000011c850                strncasecmp
 .text.strncmp  0x000000000011c8dc      0x110 /opt/devkitpro/devkitARM/lib/gcc/arm-none-eabi/4.9.2/../../../../arm-none-eabi/lib/armv6k/fpu/libg.a(lib_a-strncmp.o)
                0x000000000011c8dc                strncmp
 .text.unlikely.sulp
                0x000000000011c9ec       0x58 /opt/devkitpro/devkitARM/lib/gcc/arm-none-eabi/4.9.2/../../../../arm-none-eabi/lib/armv6k/fpu/libg.a(lib_a-strtod.o)
 *fill*         0x000000000011ca44        0x4 
 .text._strtod_r
                0x000000000011ca48     0x13e8 /opt/devkitpro/devkitARM/lib/gcc/arm-none-eabi/4.9.2/../../../../arm-none-eabi/lib/armv6k/fpu/libg.a(lib_a-strtod.o)
                0x000000000011ca48                _strtod_r
 .text.strtod   0x000000000011de30       0x20 /opt/devkitpro/devkitARM/lib/gcc/arm-none-eabi/4.9.2/../../../../arm-none-eabi/lib/armv6k/fpu/libg.a(lib_a-strtod.o)
                0x000000000011de30                strtod
 .text.strtof   0x000000000011de50       0x48 /opt/devkitpro/devkitARM/lib/gcc/arm-none-eabi/4.9.2/../../../../arm-none-eabi/lib/armv6k/fpu/libg.a(lib_a-strtod.o)
                0x000000000011de50                strtof
 .text._strtoll_r
                0x000000000011de98      0x2a0 /opt/devkitpro/devkitARM/lib/gcc/arm-none-eabi/4.9.2/../../../../arm-none-eabi/lib/armv6k/fpu/libg.a(lib_a-strtoll_r.o)
                0x000000000011de98                _strtoll_r
 .text._strtol_r
                0x000000000011e138      0x1dc /opt/devkitpro/devkitARM/lib/gcc/arm-none-eabi/4.9.2/../../../../arm-none-eabi/lib/armv6k/fpu/libg.a(lib_a-strtol.o)
                0x000000000011e138                _strtol_r
 .text.strtol   0x000000000011e314       0x28 /opt/devkitpro/devkitARM/lib/gcc/arm-none-eabi/4.9.2/../../../../arm-none-eabi/lib/armv6k/fpu/libg.a(lib_a-strtol.o)
                0x000000000011e314                strtol
 .text._strtoull_r
                0x000000000011e33c      0x260 /opt/devkitpro/devkitARM/lib/gcc/arm-none-eabi/4.9.2/../../../../arm-none-eabi/lib/armv6k/fpu/libg.a(lib_a-strtoull_r.o)
                0x000000000011e33c                _strtoull_r
 .text._strtoul_r
                0x000000000011e59c      0x1cc /opt/devkitpro/devkitARM/lib/gcc/arm-none-eabi/4.9.2/../../../../arm-none-eabi/lib/armv6k/fpu/libg.a(lib_a-strtoul.o)
                0x000000000011e59c                _strtoul_r
 .text.strtoul  0x000000000011e768       0x28 /opt/devkitpro/devkitARM/lib/gcc/arm-none-eabi/4.9.2/../../../../arm-none-eabi/lib/armv6k/fpu/libg.a(lib_a-strtoul.o)
                0x000000000011e768                strtoul
 .text.get_arg  0x000000000011e790      0x860 /opt/devkitpro/devkitARM/lib/gcc/arm-none-eabi/4.9.2/../../../../arm-none-eabi/lib/armv6k/fpu/libg.a(lib_a-svfiprintf.o)
 .text.__ssprint_r
                0x000000000011eff0      0x1a8 /opt/devkitpro/devkitARM/lib/gcc/arm-none-eabi/4.9.2/../../../../arm-none-eabi/lib/armv6k/fpu/libg.a(lib_a-svfiprintf.o)
                0x000000000011eff0                __ssprint_r
 .text._svfiprintf_r
                0x000000000011f198     0x2fdc /opt/devkitpro/devkitARM/lib/gcc/arm-none-eabi/4.9.2/../../../../arm-none-eabi/lib/armv6k/fpu/libg.a(lib_a-svfiprintf.o)
                0x000000000011f198                _svfiprintf_r
 .text._sungetc_r
                0x0000000000122174       0xf0 /opt/devkitpro/devkitARM/lib/gcc/arm-none-eabi/4.9.2/../../../../arm-none-eabi/lib/armv6k/fpu/libg.a(lib_a-svfiscanf.o)
                0x0000000000122174                _sungetc_r
 .text.__ssrefill_r
                0x0000000000122264       0x6c /opt/devkitpro/devkitARM/lib/gcc/arm-none-eabi/4.9.2/../../../../arm-none-eabi/lib/armv6k/fpu/libg.a(lib_a-svfiscanf.o)
                0x0000000000122264                __ssrefill_r
 .text._sfread_r
                0x00000000001222d0       0xc0 /opt/devkitpro/devkitARM/lib/gcc/arm-none-eabi/4.9.2/../../../../arm-none-eabi/lib/armv6k/fpu/libg.a(lib_a-svfiscanf.o)
                0x00000000001222d0                _sfread_r
 .text.__ssvfiscanf_r
                0x0000000000122390     0x213c /opt/devkitpro/devkitARM/lib/gcc/arm-none-eabi/4.9.2/../../../../arm-none-eabi/lib/armv6k/fpu/libg.a(lib_a-svfiscanf.o)
                0x0000000000122390                __ssvfiscanf_r
 .text.get_arg  0x00000000001244cc      0x860 /opt/devkitpro/devkitARM/lib/gcc/arm-none-eabi/4.9.2/../../../../arm-none-eabi/lib/armv6k/fpu/libg.a(lib_a-svfprintf.o)
 *fill*         0x0000000000124d2c        0x4 
 .text._svfprintf_r
                0x0000000000124d30     0x4320 /opt/devkitpro/devkitARM/lib/gcc/arm-none-eabi/4.9.2/../../../../arm-none-eabi/lib/armv6k/fpu/libg.a(lib_a-svfprintf.o)
                0x0000000000124d30                _svfprintf_r
 .text.__submore
                0x0000000000129050       0xa8 /opt/devkitpro/devkitARM/lib/gcc/arm-none-eabi/4.9.2/../../../../arm-none-eabi/lib/armv6k/fpu/libg.a(lib_a-ungetc.o)
                0x0000000000129050                __submore
 .text._ungetc_r
                0x00000000001290f8      0x238 /opt/devkitpro/devkitARM/lib/gcc/arm-none-eabi/4.9.2/../../../../arm-none-eabi/lib/armv6k/fpu/libg.a(lib_a-ungetc.o)
                0x00000000001290f8                _ungetc_r
 .text.ungetc   0x0000000000129330       0x20 /opt/devkitpro/devkitARM/lib/gcc/arm-none-eabi/4.9.2/../../../../arm-none-eabi/lib/armv6k/fpu/libg.a(lib_a-ungetc.o)
                0x0000000000129330                ungetc
 .text.__swbuf_r
                0x0000000000129350      0x124 /opt/devkitpro/devkitARM/lib/gcc/arm-none-eabi/4.9.2/../../../../arm-none-eabi/lib/armv6k/fpu/libg.a(lib_a-wbuf.o)
                0x0000000000129350                __swbuf_r
 .text.__swbuf  0x0000000000129474       0x20 /opt/devkitpro/devkitARM/lib/gcc/arm-none-eabi/4.9.2/../../../../arm-none-eabi/lib/armv6k/fpu/libg.a(lib_a-wbuf.o)
                0x0000000000129474                __swbuf
 .text._wcsnrtombs_r
                0x0000000000129494      0x184 /opt/devkitpro/devkitARM/lib/gcc/arm-none-eabi/4.9.2/../../../../arm-none-eabi/lib/armv6k/fpu/libg.a(lib_a-wcsnrtombs.o)
                0x0000000000129494                _wcsnrtombs_r
 .text.wcsnrtombs
                0x0000000000129618       0x40 /opt/devkitpro/devkitARM/lib/gcc/arm-none-eabi/4.9.2/../../../../arm-none-eabi/lib/armv6k/fpu/libg.a(lib_a-wcsnrtombs.o)
                0x0000000000129618                wcsnrtombs
 .text._calloc_r
                0x0000000000129658       0x94 /opt/devkitpro/devkitARM/lib/gcc/arm-none-eabi/4.9.2/../../../../arm-none-eabi/lib/armv6k/fpu/libg.a(lib_a-callocr.o)
                0x0000000000129658                _calloc_r
 .text._fclose_r
                0x00000000001296ec      0x118 /opt/devkitpro/devkitARM/lib/gcc/arm-none-eabi/4.9.2/../../../../arm-none-eabi/lib/armv6k/fpu/libg.a(lib_a-fclose.o)
                0x00000000001296ec                _fclose_r
 .text.fclose   0x0000000000129804       0x18 /opt/devkitpro/devkitARM/lib/gcc/arm-none-eabi/4.9.2/../../../../arm-none-eabi/lib/armv6k/fpu/libg.a(lib_a-fclose.o)
                0x0000000000129804                fclose
 .text.rshift   0x000000000012981c       0xec /opt/devkitpro/devkitARM/lib/gcc/arm-none-eabi/4.9.2/../../../../arm-none-eabi/lib/armv6k/fpu/libg.a(lib_a-gdtoa-gethex.o)
 .text.__gethex
                0x0000000000129908      0x7e8 /opt/devkitpro/devkitARM/lib/gcc/arm-none-eabi/4.9.2/../../../../arm-none-eabi/lib/armv6k/fpu/libg.a(lib_a-gdtoa-gethex.o)
                0x0000000000129908                __gethex
 .text.__hexnan
                0x000000000012a0f0      0x260 /opt/devkitpro/devkitARM/lib/gcc/arm-none-eabi/4.9.2/../../../../arm-none-eabi/lib/armv6k/fpu/libg.a(lib_a-gdtoa-hexnan.o)
                0x000000000012a0f0                __hexnan
 .text._findenv_r
                0x000000000012a350       0xc8 /opt/devkitpro/devkitARM/lib/gcc/arm-none-eabi/4.9.2/../../../../arm-none-eabi/lib/armv6k/fpu/libg.a(lib_a-getenv_r.o)
                0x000000000012a350                _findenv_r
 .text._getenv_r
                0x000000000012a418       0x18 /opt/devkitpro/devkitARM/lib/gcc/arm-none-eabi/4.9.2/../../../../arm-none-eabi/lib/armv6k/fpu/libg.a(lib_a-getenv_r.o)
                0x000000000012a418                _getenv_r
 .text.__env_lock
                0x000000000012a430        0x4 /opt/devkitpro/devkitARM/lib/gcc/arm-none-eabi/4.9.2/../../../../arm-none-eabi/lib/armv6k/fpu/libg.a(lib_a-envlock.o)
                0x000000000012a430                __env_lock
 .text.__env_unlock
                0x000000000012a434        0x4 /opt/devkitpro/devkitARM/lib/gcc/arm-none-eabi/4.9.2/../../../../arm-none-eabi/lib/armv6k/fpu/libg.a(lib_a-envlock.o)
                0x000000000012a434                __env_unlock
 .text.__errno  0x000000000012a438        0xc /opt/devkitpro/devkitARM/lib/gcc/arm-none-eabi/4.9.2/../../../../arm-none-eabi/lib/armv6k/fpu/libg.a(lib_a-errno.o)
                0x000000000012a438                __errno
 .text.strnlen  0x000000000012a444       0x5c /opt/devkitpro/devkitARM/lib/gcc/arm-none-eabi/4.9.2/../../../../arm-none-eabi/lib/armv6k/fpu/libg.a(lib_a-strnlen.o)
                0x000000000012a444                strnlen
 .text.strrchr  0x000000000012a4a0       0x44 /opt/devkitpro/devkitARM/lib/gcc/arm-none-eabi/4.9.2/../../../../arm-none-eabi/lib/armv6k/fpu/libg.a(lib_a-strrchr.o)
                0x000000000012a4a0                strrchr
 *(.glue_7)
 .glue_7        0x000000000012a4e4        0x0 linker stubs
 *(.glue_7t)
 .glue_7t       0x000000000012a4e4        0x0 linker stubs
 *(.stub)
 *(.gnu.warning)
 *(.gnu.linkonce.t*)
                0x000000000012a4e4                . = ALIGN (0x4)
 *(.fini)
 .fini          0x000000000012a4e4        0xc /opt/devkitpro/devkitARM/lib/gcc/arm-none-eabi/4.9.2/armv6k/fpu/crti.o
                0x000000000012a4e4                _fini
 .fini          0x000000000012a4f0        0xc /opt/devkitpro/devkitARM/lib/gcc/arm-none-eabi/4.9.2/armv6k/fpu/crtn.o
                0x000000000012a4fc                . = ALIGN (0x4)

.vfp11_veneer   0x000000000012a4fc        0x0
 .vfp11_veneer  0x000000000012a4fc        0x0 linker stubs

.v4_bx          0x000000000012a4fc        0x0
 .v4_bx         0x000000000012a4fc        0x0 linker stubs

.iplt           0x000000000012a4fc        0x0
 .iplt          0x000000000012a4fc        0x0 /opt/devkitpro/devkitARM/lib/gcc/arm-none-eabi/4.9.2/../../../../arm-none-eabi/lib/armv6k/fpu/3dsx_crt0.o

.rodata         0x000000000012b000     0x4b48
 *(.rodata)
 .rodata        0x000000000012b000       0x2c /opt/devkitpro/libctru/lib/libctru.a(os.o)
 .rodata        0x000000000012b02c      0x168 /opt/devkitpro/libctru/lib/libctru.a(console.o)
 .rodata        0x000000000012b194       0x14 /opt/devkitpro/libctru/lib/libctru.a(gfx.o)
 .rodata        0x000000000012b1a8        0xc /opt/devkitpro/libctru/lib/libctru.a(apt.o)
 .rodata        0x000000000012b1b4      0x804 /opt/devkitpro/libctru/lib/libctru.a(default_font.bin.o)
                0x000000000012b1b4                default_font_bin
                0x000000000012b9b4                default_font_bin_end
                0x000000000012b9b4                default_font_bin_size
 .rodata        0x000000000012b9b8       0x30 /opt/devkitpro/libctru/lib/libctru.a(sdmc_dev.o)
 .rodata        0x000000000012b9e8       0x68 /opt/devkitpro/devkitARM/lib/gcc/arm-none-eabi/4.9.2/../../../../arm-none-eabi/lib/armv6k/fpu/libsysbase.a(iosupport.o)
                0x000000000012b9e8                dotab_stdnull
 .rodata        0x000000000012ba50        0xc /opt/devkitpro/devkitARM/lib/gcc/arm-none-eabi/4.9.2/../../../../arm-none-eabi/lib/armv6k/fpu/libsysbase.a(chdir.o)
                0x000000000012ba50                DIRECTORY_PARENT
                0x000000000012ba54                DIRECTORY_THIS
                0x000000000012ba58                DIRECTORY_SEPARATOR
 *(.roda)
 *(.rodata.*)
 .rodata.str1.4
                0x000000000012ba5c      0x21f main.o
                                        0x224 (size before relaxing)
 *fill*         0x000000000012bc7b        0x1 
 .rodata.str1.4
                0x000000000012bc7c       0xc4 /opt/devkitpro/libctru/lib/libctru.a(os.o)
 .rodata.str1.4
                0x000000000012bd40       0x70 /opt/devkitpro/libctru/lib/libctru.a(console.o)
 .rodata.str1.4
                0x000000000012bdb0        0x9 /opt/devkitpro/libctru/lib/libctru.a(gsp.o)
                                          0xc (size before relaxing)
 *fill*         0x000000000012bdb9        0x3 
 .rodata.str1.4
                0x000000000012bdbc       0x16 /opt/devkitpro/libctru/lib/libctru.a(apt.o)
                                         0x18 (size before relaxing)
 *fill*         0x000000000012bdd2        0x2 
 .rodata.str1.4
                0x000000000012bdd4        0xf /opt/devkitpro/libctru/lib/libctru.a(srv.o)
                                         0x10 (size before relaxing)
 *fill*         0x000000000012bde3        0x1 
 .rodata.str1.4
                0x000000000012bde4        0x5 /opt/devkitpro/libctru/lib/libctru.a(sdmc_dev.o)
                                          0xc (size before relaxing)
 *fill*         0x000000000012bde9        0x3 
 .rodata.str1.4
                0x000000000012bdec       0x15 /opt/devkitpro/libctru/lib/libctru.a(hid.o)
                                         0x18 (size before relaxing)
 *fill*         0x000000000012be01        0x3 
 .rodata.str1.4
                0x000000000012be04        0x8 /opt/devkitpro/libctru/lib/libctru.a(fs.o)
 .rodata.str1.4
                0x000000000012be0c        0x7 /opt/devkitpro/libctru/lib/libctru.a(irrst.o)
                                          0x8 (size before relaxing)
 *fill*         0x000000000012be13        0x1 
 .rodata.str1.4
                0x000000000012be14        0x5 /opt/devkitpro/devkitARM/lib/gcc/arm-none-eabi/4.9.2/../../../../arm-none-eabi/lib/armv6k/fpu/libg.a(lib_a-svfscanf.o)
                                          0x8 (size before relaxing)
 *fill*         0x000000000012be19        0x3 
 .rodata.basefix.6958
                0x000000000012be1c       0x24 /opt/devkitpro/devkitARM/lib/gcc/arm-none-eabi/4.9.2/../../../../arm-none-eabi/lib/armv6k/fpu/libg.a(lib_a-svfscanf.o)
 .rodata.zeroes.7030
                0x000000000012be40       0x10 /opt/devkitpro/devkitARM/lib/gcc/arm-none-eabi/4.9.2/../../../../arm-none-eabi/lib/armv6k/fpu/libg.a(lib_a-vfiprintf.o)
 .rodata.str1.4
                0x000000000012be50       0x2f /opt/devkitpro/devkitARM/lib/gcc/arm-none-eabi/4.9.2/../../../../arm-none-eabi/lib/armv6k/fpu/libg.a(lib_a-vfiprintf.o)
                                         0x30 (size before relaxing)
 *fill*         0x000000000012be7f        0x1 
 .rodata.blanks.7029
                0x000000000012be80       0x10 /opt/devkitpro/devkitARM/lib/gcc/arm-none-eabi/4.9.2/../../../../arm-none-eabi/lib/armv6k/fpu/libg.a(lib_a-vfiprintf.o)
 .rodata.zeroes.7052
                0x000000000012be90       0x10 /opt/devkitpro/devkitARM/lib/gcc/arm-none-eabi/4.9.2/../../../../arm-none-eabi/lib/armv6k/fpu/libg.a(lib_a-vfprintf.o)
 .rodata.str1.4
                0x000000000012bea0       0x10 /opt/devkitpro/devkitARM/lib/gcc/arm-none-eabi/4.9.2/../../../../arm-none-eabi/lib/armv6k/fpu/libg.a(lib_a-vfprintf.o)
                                         0x44 (size before relaxing)
 .rodata.blanks.7051
                0x000000000012beb0       0x10 /opt/devkitpro/devkitARM/lib/gcc/arm-none-eabi/4.9.2/../../../../arm-none-eabi/lib/armv6k/fpu/libg.a(lib_a-vfprintf.o)
 .rodata._ctype_
                0x000000000012bec0      0x104 /opt/devkitpro/devkitARM/lib/gcc/arm-none-eabi/4.9.2/../../../../arm-none-eabi/lib/armv6k/fpu/libg.a(lib_a-ctype_.o)
                0x000000000012bec0                _ctype_
 .rodata.str1.4
                0x000000000012bfc4       0x10 /opt/devkitpro/devkitARM/lib/gcc/arm-none-eabi/4.9.2/../../../../arm-none-eabi/lib/armv6k/fpu/libg.a(lib_a-dtoa.o)
                                         0x14 (size before relaxing)
 .rodata.str1.4
                0x000000000012bfd4        0x2 /opt/devkitpro/devkitARM/lib/gcc/arm-none-eabi/4.9.2/../../../../arm-none-eabi/lib/armv6k/fpu/libg.a(lib_a-impure.o)
                                          0x4 (size before relaxing)
 *fill*         0x000000000012bfd6        0x2 
 .rodata._global_impure_ptr
                0x000000000012bfd8        0x4 /opt/devkitpro/devkitARM/lib/gcc/arm-none-eabi/4.9.2/../../../../arm-none-eabi/lib/armv6k/fpu/libg.a(lib_a-impure.o)
                0x000000000012bfd8                _global_impure_ptr
 .rodata.a1     0x000000000012bfdc       0xbc /opt/devkitpro/devkitARM/lib/gcc/arm-none-eabi/4.9.2/../../../../arm-none-eabi/lib/armv6k/fpu/libg.a(lib_a-jp2uc.o)
 .rodata.a2     0x000000000012c098       0xbc /opt/devkitpro/devkitARM/lib/gcc/arm-none-eabi/4.9.2/../../../../arm-none-eabi/lib/armv6k/fpu/libg.a(lib_a-jp2uc.o)
 .rodata.a3     0x000000000012c154       0x5c /opt/devkitpro/devkitARM/lib/gcc/arm-none-eabi/4.9.2/../../../../arm-none-eabi/lib/armv6k/fpu/libg.a(lib_a-jp2uc.o)
 .rodata.a6     0x000000000012c1b0       0x70 /opt/devkitpro/devkitARM/lib/gcc/arm-none-eabi/4.9.2/../../../../arm-none-eabi/lib/armv6k/fpu/libg.a(lib_a-jp2uc.o)
 .rodata.a7     0x000000000012c220       0xa4 /opt/devkitpro/devkitARM/lib/gcc/arm-none-eabi/4.9.2/../../../../arm-none-eabi/lib/armv6k/fpu/libg.a(lib_a-jp2uc.o)
 .rodata.a8     0x000000000012c2c4       0x40 /opt/devkitpro/devkitARM/lib/gcc/arm-none-eabi/4.9.2/../../../../arm-none-eabi/lib/armv6k/fpu/libg.a(lib_a-jp2uc.o)
 .rodata.str1.4
                0x000000000012c304       0x12 /opt/devkitpro/devkitARM/lib/gcc/arm-none-eabi/4.9.2/../../../../arm-none-eabi/lib/armv6k/fpu/libg.a(lib_a-jp2uc.o)
                                         0x14 (size before relaxing)
 *fill*         0x000000000012c316        0x2 
 .rodata.b02cf  0x000000000012c318     0x172c /opt/devkitpro/devkitARM/lib/gcc/arm-none-eabi/4.9.2/../../../../arm-none-eabi/lib/armv6k/fpu/libg.a(lib_a-jp2uc.o)
 .rodata.d02f4  0x000000000012da44     0x1a7c /opt/devkitpro/devkitARM/lib/gcc/arm-none-eabi/4.9.2/../../../../arm-none-eabi/lib/armv6k/fpu/libg.a(lib_a-jp2uc.o)
 .rodata.str1.4
                0x000000000012f4c0      0x110 /opt/devkitpro/devkitARM/lib/gcc/arm-none-eabi/4.9.2/../../../../arm-none-eabi/lib/armv6k/fpu/libg.a(lib_a-locale.o)
                                        0x130 (size before relaxing)
 .rodata.categories
                0x000000000012f5d0       0x1c /opt/devkitpro/devkitARM/lib/gcc/arm-none-eabi/4.9.2/../../../../arm-none-eabi/lib/armv6k/fpu/libg.a(lib_a-locale.o)
 .rodata.str1.4
                0x000000000012f5ec        0x4 /opt/devkitpro/devkitARM/lib/gcc/arm-none-eabi/4.9.2/../../../../arm-none-eabi/lib/armv6k/fpu/libg.a(lib_a-mbrtowc.o)
 .rodata.JIS_state_table
                0x000000000012f5ec       0x48 /opt/devkitpro/devkitARM/lib/gcc/arm-none-eabi/4.9.2/../../../../arm-none-eabi/lib/armv6k/fpu/libg.a(lib_a-mbtowc_r.o)
 .rodata.JIS_action_table
                0x000000000012f634       0x48 /opt/devkitpro/devkitARM/lib/gcc/arm-none-eabi/4.9.2/../../../../arm-none-eabi/lib/armv6k/fpu/libg.a(lib_a-mbtowc_r.o)
 .rodata.p05.5298
                0x000000000012f67c        0xc /opt/devkitpro/devkitARM/lib/gcc/arm-none-eabi/4.9.2/../../../../arm-none-eabi/lib/armv6k/fpu/libg.a(lib_a-mprec.o)
 .rodata.__mprec_tens
                0x000000000012f688       0xc8 /opt/devkitpro/devkitARM/lib/gcc/arm-none-eabi/4.9.2/../../../../arm-none-eabi/lib/armv6k/fpu/libg.a(lib_a-mprec.o)
                0x000000000012f688                __mprec_tens
 .rodata.__mprec_bigtens
                0x000000000012f750       0x28 /opt/devkitpro/devkitARM/lib/gcc/arm-none-eabi/4.9.2/../../../../arm-none-eabi/lib/armv6k/fpu/libg.a(lib_a-mprec.o)
                0x000000000012f750                __mprec_bigtens
 .rodata.__mprec_tinytens
                0x000000000012f778       0x28 /opt/devkitpro/devkitARM/lib/gcc/arm-none-eabi/4.9.2/../../../../arm-none-eabi/lib/armv6k/fpu/libg.a(lib_a-mprec.o)
                0x000000000012f778                __mprec_tinytens
 .rodata.fpinan.5303
                0x000000000012f7a0       0x14 /opt/devkitpro/devkitARM/lib/gcc/arm-none-eabi/4.9.2/../../../../arm-none-eabi/lib/armv6k/fpu/libg.a(lib_a-strtod.o)
 .rodata.str1.4
                0x000000000012f7b4        0xf /opt/devkitpro/devkitARM/lib/gcc/arm-none-eabi/4.9.2/../../../../arm-none-eabi/lib/armv6k/fpu/libg.a(lib_a-strtod.o)
                                         0x10 (size before relaxing)
 *fill*         0x000000000012f7c3        0x5 
 .rodata.tinytens
                0x000000000012f7c8       0x28 /opt/devkitpro/devkitARM/lib/gcc/arm-none-eabi/4.9.2/../../../../arm-none-eabi/lib/armv6k/fpu/libg.a(lib_a-strtod.o)
 .rodata.fpi.5267
                0x000000000012f7f0       0x14 /opt/devkitpro/devkitARM/lib/gcc/arm-none-eabi/4.9.2/../../../../arm-none-eabi/lib/armv6k/fpu/libg.a(lib_a-strtod.o)
 .rodata.__state_table
                0x000000000012f804       0x6c /opt/devkitpro/devkitARM/lib/gcc/arm-none-eabi/4.9.2/../../../../arm-none-eabi/lib/armv6k/fpu/libg.a(lib_a-svfiprintf.o)
                0x000000000012f804                __state_table
 .rodata.blanks.7015
                0x000000000012f870       0x10 /opt/devkitpro/devkitARM/lib/gcc/arm-none-eabi/4.9.2/../../../../arm-none-eabi/lib/armv6k/fpu/libg.a(lib_a-svfiprintf.o)
 .rodata.__chclass
                0x000000000012f880      0x100 /opt/devkitpro/devkitARM/lib/gcc/arm-none-eabi/4.9.2/../../../../arm-none-eabi/lib/armv6k/fpu/libg.a(lib_a-svfiprintf.o)
                0x000000000012f880                __chclass
 .rodata.str1.4
                0x000000000012f980       0x30 /opt/devkitpro/devkitARM/lib/gcc/arm-none-eabi/4.9.2/../../../../arm-none-eabi/lib/armv6k/fpu/libg.a(lib_a-svfiprintf.o)
 .rodata.__action_table
                0x000000000012f980       0x6c /opt/devkitpro/devkitARM/lib/gcc/arm-none-eabi/4.9.2/../../../../arm-none-eabi/lib/armv6k/fpu/libg.a(lib_a-svfiprintf.o)
                0x000000000012f980                __action_table
 .rodata.zeroes.7016
                0x000000000012f9ec       0x10 /opt/devkitpro/devkitARM/lib/gcc/arm-none-eabi/4.9.2/../../../../arm-none-eabi/lib/armv6k/fpu/libg.a(lib_a-svfiprintf.o)
 .rodata.basefix.6409
                0x000000000012f9fc       0x24 /opt/devkitpro/devkitARM/lib/gcc/arm-none-eabi/4.9.2/../../../../arm-none-eabi/lib/armv6k/fpu/libg.a(lib_a-svfiscanf.o)
 .rodata.zeroes.7037
                0x000000000012fa20       0x10 /opt/devkitpro/devkitARM/lib/gcc/arm-none-eabi/4.9.2/../../../../arm-none-eabi/lib/armv6k/fpu/libg.a(lib_a-svfprintf.o)
 .rodata.str1.4
                0x000000000012fa30       0x44 /opt/devkitpro/devkitARM/lib/gcc/arm-none-eabi/4.9.2/../../../../arm-none-eabi/lib/armv6k/fpu/libg.a(lib_a-svfprintf.o)
 .rodata.blanks.7036
                0x000000000012fa30       0x10 /opt/devkitpro/devkitARM/lib/gcc/arm-none-eabi/4.9.2/../../../../arm-none-eabi/lib/armv6k/fpu/libg.a(lib_a-svfprintf.o)
 .rodata.__hexdig
                0x000000000012fa40      0x100 /opt/devkitpro/devkitARM/lib/gcc/arm-none-eabi/4.9.2/../../../../arm-none-eabi/lib/armv6k/fpu/libg.a(lib_a-gdtoa-gethex.o)
                0x000000000012fa40                __hexdig
 .rodata.str1.4
                0x000000000012fb40        0x8 /opt/devkitpro/devkitARM/lib/gcc/arm-none-eabi/4.9.2/../../../../arm-none-eabi/lib/armv6k/fpu/libsysbase.a(iosupport.o)
 *all.rodata*(*)
 *(.gnu.linkonce.r*)
                0x000000000012fb48                . = ALIGN (0x4)

.rel.dyn        0x000000000012fb48        0x0
 .rel.iplt      0x000000000012fb48        0x0 /opt/devkitpro/devkitARM/lib/gcc/arm-none-eabi/4.9.2/../../../../arm-none-eabi/lib/armv6k/fpu/3dsx_crt0.o

.ARM.extab
 *(.ARM.extab* .gnu.linkonce.armextab.*)
                0x000000000012fb48                __exidx_start = .

ARM.exidx
 *(.ARM.exidx* .gnu.linkonce.armexidx.*)
                0x000000000012fb48                __exidx_end = .

.data           0x0000000000130000     0x3b20
 *(.data)
 .data          0x0000000000130000        0x0 /opt/devkitpro/devkitARM/lib/gcc/arm-none-eabi/4.9.2/../../../../arm-none-eabi/lib/armv6k/fpu/3dsx_crt0.o
 .data          0x0000000000130000        0x0 /opt/devkitpro/devkitARM/lib/gcc/arm-none-eabi/4.9.2/armv6k/fpu/crti.o
 .data          0x0000000000130000        0x4 /opt/devkitpro/devkitARM/lib/gcc/arm-none-eabi/4.9.2/armv6k/fpu/crtbegin.o
                0x0000000000130000                __dso_handle
 .data          0x0000000000130004        0x4 main.o
                0x0000000000130004                asciiart
 .data          0x0000000000130008        0x0 /opt/devkitpro/libctru/lib/libctru.a(os.o)
 .data          0x0000000000130008       0x54 /opt/devkitpro/libctru/lib/libctru.a(console.o)
                0x0000000000130008                defaultConsole
                0x0000000000130054                currentConsole
 .data          0x000000000013005c        0xc /opt/devkitpro/libctru/lib/libctru.a(gfx.o)
 .data          0x0000000000130068        0x0 /opt/devkitpro/libctru/lib/libctru.a(gsp.o)
 .data          0x0000000000130068        0x0 /opt/devkitpro/libctru/lib/libctru.a(apt.o)
 .data          0x0000000000130068        0x0 /opt/devkitpro/libctru/lib/libctru.a(gx.o)
 .data          0x0000000000130068        0x0 /opt/devkitpro/libctru/lib/libctru.a(initSystem.o)
 .data          0x0000000000130068        0x0 /opt/devkitpro/libctru/lib/libctru.a(allocateHeaps.o)
 .data          0x0000000000130068        0x0 /opt/devkitpro/libctru/lib/libctru.a(initArgv.o)
 .data          0x0000000000130068        0x0 /opt/devkitpro/libctru/lib/libctru.a(svc.o)
 .data          0x0000000000130068        0x4 /opt/devkitpro/libctru/lib/libctru.a(stack_adjust.o)
                0x0000000000130068                __stacksize__
 .data          0x000000000013006c        0x0 /opt/devkitpro/libctru/lib/libctru.a(default_font.bin.o)
 .data          0x000000000013006c        0x0 /opt/devkitpro/libctru/lib/libctru.a(vram.o)
 .data          0x000000000013006c        0x0 /opt/devkitpro/libctru/lib/libctru.a(linear.o)
 .data          0x000000000013006c        0x0 /opt/devkitpro/libctru/lib/libctru.a(mem_pool.o)
 .data          0x000000000013006c        0x0 /opt/devkitpro/libctru/lib/libctru.a(srv.o)
 .data          0x000000000013006c        0x0 /opt/devkitpro/libctru/lib/libctru.a(rbtree_init.o)
 .data          0x000000000013006c        0x0 /opt/devkitpro/libctru/lib/libctru.a(rbtree_insert.o)
 .data          0x000000000013006c        0x0 /opt/devkitpro/libctru/lib/libctru.a(rbtree_rotate.o)
 .data          0x000000000013006c        0x0 /opt/devkitpro/libctru/lib/libctru.a(rbtree_remove.o)
 .data          0x000000000013006c        0x0 /opt/devkitpro/libctru/lib/libctru.a(rbtree_find.o)
 .data          0x000000000013006c        0x0 /opt/devkitpro/libctru/lib/libctru.a(appInit.o)
 .data          0x000000000013006c        0x0 /opt/devkitpro/libctru/lib/libctru.a(appExit.o)
 .data          0x000000000013006c        0x0 /opt/devkitpro/libctru/lib/libctru.a(ctru_exit.o)
 .data          0x000000000013006c     0x1084 /opt/devkitpro/libctru/lib/libctru.a(sdmc_dev.o)
 .data          0x00000000001310f0        0x0 /opt/devkitpro/libctru/lib/libctru.a(hid.o)
 .data          0x00000000001310f0        0x0 /opt/devkitpro/libctru/lib/libctru.a(fs.o)
 .data          0x00000000001310f0        0x0 /opt/devkitpro/libctru/lib/libctru.a(rbtree_iterator.o)
 .data          0x00000000001310f0        0x0 /opt/devkitpro/libctru/lib/libctru.a(utf8_to_utf16.o)
 .data          0x00000000001310f0        0x0 /opt/devkitpro/libctru/lib/libctru.a(decode_utf8.o)
 .data          0x00000000001310f0        0x0 /opt/devkitpro/libctru/lib/libctru.a(utf16_to_utf8.o)
 .data          0x00000000001310f0        0x0 /opt/devkitpro/libctru/lib/libctru.a(irrst.o)
 .data          0x00000000001310f0        0x0 /opt/devkitpro/libctru/lib/libctru.a(encode_utf16.o)
 .data          0x00000000001310f0        0x0 /opt/devkitpro/libctru/lib/libctru.a(encode_utf8.o)
 .data          0x00000000001310f0        0x0 /opt/devkitpro/libctru/lib/libctru.a(decode_utf16.o)
 .data          0x00000000001310f0        0x0 /opt/devkitpro/devkitARM/lib/gcc/arm-none-eabi/4.9.2/armv6k/fpu/libgcc.a(_divsi3.o)
 .data          0x00000000001310f0        0x0 /opt/devkitpro/devkitARM/lib/gcc/arm-none-eabi/4.9.2/armv6k/fpu/libgcc.a(_dvmd_tls.o)
 .data          0x00000000001310f0        0x0 /opt/devkitpro/devkitARM/lib/gcc/arm-none-eabi/4.9.2/../../../../arm-none-eabi/lib/armv6k/fpu/libg.a(lib_a-bsearch.o)
 .data          0x00000000001310f0        0x0 /opt/devkitpro/devkitARM/lib/gcc/arm-none-eabi/4.9.2/../../../../arm-none-eabi/lib/armv6k/fpu/libg.a(lib_a-fini.o)
 .data          0x00000000001310f0        0x0 /opt/devkitpro/devkitARM/lib/gcc/arm-none-eabi/4.9.2/../../../../arm-none-eabi/lib/armv6k/fpu/libg.a(lib_a-init.o)
 .data          0x00000000001310f0        0x0 /opt/devkitpro/devkitARM/lib/gcc/arm-none-eabi/4.9.2/../../../../arm-none-eabi/lib/armv6k/fpu/libg.a(lib_a-iprintf.o)
 .data          0x00000000001310f0        0x0 /opt/devkitpro/devkitARM/lib/gcc/arm-none-eabi/4.9.2/../../../../arm-none-eabi/lib/armv6k/fpu/libg.a(lib_a-malloc.o)
 .data          0x00000000001310f0        0x0 /opt/devkitpro/devkitARM/lib/gcc/arm-none-eabi/4.9.2/../../../../arm-none-eabi/lib/armv6k/fpu/libg.a(lib_a-mallocr.o)
 .data          0x00000000001310f0        0x0 /opt/devkitpro/devkitARM/lib/gcc/arm-none-eabi/4.9.2/../../../../arm-none-eabi/lib/armv6k/fpu/libg.a(lib_a-memcpy.o)
 .data          0x00000000001310f0        0x0 /opt/devkitpro/devkitARM/lib/gcc/arm-none-eabi/4.9.2/../../../../arm-none-eabi/lib/armv6k/fpu/libg.a(lib_a-memset.o)
 .data          0x00000000001310f0        0x0 /opt/devkitpro/devkitARM/lib/gcc/arm-none-eabi/4.9.2/../../../../arm-none-eabi/lib/armv6k/fpu/libg.a(lib_a-mlock.o)
 .data          0x00000000001310f0        0x0 /opt/devkitpro/devkitARM/lib/gcc/arm-none-eabi/4.9.2/../../../../arm-none-eabi/lib/armv6k/fpu/libg.a(lib_a-printf.o)
 .data          0x00000000001310f0        0x0 /opt/devkitpro/devkitARM/lib/gcc/arm-none-eabi/4.9.2/../../../../arm-none-eabi/lib/armv6k/fpu/libg.a(lib_a-setvbuf.o)
 .data          0x00000000001310f0        0x0 /opt/devkitpro/devkitARM/lib/gcc/arm-none-eabi/4.9.2/../../../../arm-none-eabi/lib/armv6k/fpu/libg.a(lib_a-sscanf.o)
 .data          0x00000000001310f0        0x0 /opt/devkitpro/devkitARM/lib/gcc/arm-none-eabi/4.9.2/../../../../arm-none-eabi/lib/armv6k/fpu/libg.a(lib_a-stdio.o)
 .data          0x00000000001310f0        0x0 /opt/devkitpro/devkitARM/lib/gcc/arm-none-eabi/4.9.2/../../../../arm-none-eabi/lib/armv6k/fpu/libg.a(lib_a-strchr.o)
 .data          0x00000000001310f0        0x0 /opt/devkitpro/devkitARM/lib/gcc/arm-none-eabi/4.9.2/../../../../arm-none-eabi/lib/armv6k/fpu/libg.a(lib_a-strcpy.o)
 .data          0x00000000001310f0        0x0 /opt/devkitpro/devkitARM/lib/gcc/arm-none-eabi/4.9.2/../../../../arm-none-eabi/lib/armv6k/fpu/libg.a(lib_a-strlen.o)
 .data          0x00000000001310f0        0x0 /opt/devkitpro/devkitARM/lib/gcc/arm-none-eabi/4.9.2/../../../../arm-none-eabi/lib/armv6k/fpu/libg.a(lib_a-strncat.o)
 .data          0x00000000001310f0        0x0 /opt/devkitpro/devkitARM/lib/gcc/arm-none-eabi/4.9.2/../../../../arm-none-eabi/lib/armv6k/fpu/libg.a(lib_a-strncpy.o)
 .data          0x00000000001310f0        0x0 /opt/devkitpro/devkitARM/lib/gcc/arm-none-eabi/4.9.2/../../../../arm-none-eabi/lib/armv6k/fpu/libg.a(lib_a-svfscanf.o)
 .data          0x00000000001310f0        0x0 /opt/devkitpro/devkitARM/lib/gcc/arm-none-eabi/4.9.2/../../../../arm-none-eabi/lib/armv6k/fpu/libg.a(lib_a-vfiprintf.o)
 .data          0x00000000001310f0        0x0 /opt/devkitpro/devkitARM/lib/gcc/arm-none-eabi/4.9.2/../../../../arm-none-eabi/lib/armv6k/fpu/libg.a(lib_a-vfprintf.o)
 .data          0x00000000001310f0        0x0 /opt/devkitpro/devkitARM/lib/gcc/arm-none-eabi/4.9.2/../../../../arm-none-eabi/lib/armv6k/fpu/libg.a(lib_a-wcrtomb.o)
 .data          0x00000000001310f0        0x0 /opt/devkitpro/devkitARM/lib/gcc/arm-none-eabi/4.9.2/../../../../arm-none-eabi/lib/armv6k/fpu/libg.a(lib_a-wcsrtombs.o)
 .data          0x00000000001310f0        0x0 /opt/devkitpro/devkitARM/lib/gcc/arm-none-eabi/4.9.2/../../../../arm-none-eabi/lib/armv6k/fpu/libg.a(lib_a-wctomb_r.o)
 .data          0x00000000001310f0        0x0 /opt/devkitpro/devkitARM/lib/gcc/arm-none-eabi/4.9.2/../../../../arm-none-eabi/lib/armv6k/fpu/libg.a(lib_a-wsetup.o)
 .data          0x00000000001310f0        0x0 /opt/devkitpro/devkitARM/lib/gcc/arm-none-eabi/4.9.2/../../../../arm-none-eabi/lib/armv6k/fpu/libg.a(lib_a-ctype_.o)
 .data          0x00000000001310f0        0x0 /opt/devkitpro/devkitARM/lib/gcc/arm-none-eabi/4.9.2/../../../../arm-none-eabi/lib/armv6k/fpu/libg.a(lib_a-dtoa.o)
 .data          0x00000000001310f0        0x0 /opt/devkitpro/devkitARM/lib/gcc/arm-none-eabi/4.9.2/../../../../arm-none-eabi/lib/armv6k/fpu/libg.a(lib_a-fflush.o)
 .data          0x00000000001310f0        0x0 /opt/devkitpro/devkitARM/lib/gcc/arm-none-eabi/4.9.2/../../../../arm-none-eabi/lib/armv6k/fpu/libg.a(lib_a-findfp.o)
 .data          0x00000000001310f0        0x0 /opt/devkitpro/devkitARM/lib/gcc/arm-none-eabi/4.9.2/../../../../arm-none-eabi/lib/armv6k/fpu/libg.a(lib_a-fputwc.o)
 .data          0x00000000001310f0        0x0 /opt/devkitpro/devkitARM/lib/gcc/arm-none-eabi/4.9.2/../../../../arm-none-eabi/lib/armv6k/fpu/libg.a(lib_a-freer.o)
 .data          0x00000000001310f0        0x0 /opt/devkitpro/devkitARM/lib/gcc/arm-none-eabi/4.9.2/../../../../arm-none-eabi/lib/armv6k/fpu/libg.a(lib_a-fvwrite.o)
 .data          0x00000000001310f0        0x0 /opt/devkitpro/devkitARM/lib/gcc/arm-none-eabi/4.9.2/../../../../arm-none-eabi/lib/armv6k/fpu/libg.a(lib_a-fwalk.o)
 .data          0x00000000001310f0        0x0 /opt/devkitpro/devkitARM/lib/gcc/arm-none-eabi/4.9.2/../../../../arm-none-eabi/lib/armv6k/fpu/libg.a(lib_a-impure.o)
 .data          0x00000000001310f0        0x0 /opt/devkitpro/devkitARM/lib/gcc/arm-none-eabi/4.9.2/../../../../arm-none-eabi/lib/armv6k/fpu/libg.a(lib_a-iswspace.o)
 .data          0x00000000001310f0        0x0 /opt/devkitpro/devkitARM/lib/gcc/arm-none-eabi/4.9.2/../../../../arm-none-eabi/lib/armv6k/fpu/libg.a(lib_a-jp2uc.o)
 .data          0x00000000001310f0        0x0 /opt/devkitpro/devkitARM/lib/gcc/arm-none-eabi/4.9.2/../../../../arm-none-eabi/lib/armv6k/fpu/libg.a(lib_a-locale.o)
 .data          0x00000000001310f0        0x0 /opt/devkitpro/devkitARM/lib/gcc/arm-none-eabi/4.9.2/../../../../arm-none-eabi/lib/armv6k/fpu/libg.a(lib_a-makebuf.o)
 .data          0x00000000001310f0        0x0 /opt/devkitpro/devkitARM/lib/gcc/arm-none-eabi/4.9.2/../../../../arm-none-eabi/lib/armv6k/fpu/libg.a(lib_a-mbrtowc.o)
 .data          0x00000000001310f0        0x0 /opt/devkitpro/devkitARM/lib/gcc/arm-none-eabi/4.9.2/../../../../arm-none-eabi/lib/armv6k/fpu/libg.a(lib_a-mbtowc_r.o)
 .data          0x00000000001310f0        0x0 /opt/devkitpro/devkitARM/lib/gcc/arm-none-eabi/4.9.2/../../../../arm-none-eabi/lib/armv6k/fpu/libg.a(lib_a-memchr.o)
 .data          0x00000000001310f0        0x0 /opt/devkitpro/devkitARM/lib/gcc/arm-none-eabi/4.9.2/../../../../arm-none-eabi/lib/armv6k/fpu/libg.a(lib_a-memmove.o)
 .data          0x00000000001310f0        0x0 /opt/devkitpro/devkitARM/lib/gcc/arm-none-eabi/4.9.2/../../../../arm-none-eabi/lib/armv6k/fpu/libg.a(lib_a-mprec.o)
 .data          0x00000000001310f0        0x0 /opt/devkitpro/devkitARM/lib/gcc/arm-none-eabi/4.9.2/../../../../arm-none-eabi/lib/armv6k/fpu/libg.a(lib_a-reallocr.o)
 .data          0x00000000001310f0        0x0 /opt/devkitpro/devkitARM/lib/gcc/arm-none-eabi/4.9.2/../../../../arm-none-eabi/lib/armv6k/fpu/libg.a(lib_a-sccl.o)
 .data          0x00000000001310f0        0x0 /opt/devkitpro/devkitARM/lib/gcc/arm-none-eabi/4.9.2/../../../../arm-none-eabi/lib/armv6k/fpu/libg.a(lib_a-sf_nan.o)
 .data          0x00000000001310f0        0x0 /opt/devkitpro/devkitARM/lib/gcc/arm-none-eabi/4.9.2/../../../../arm-none-eabi/lib/armv6k/fpu/libg.a(lib_a-s_fpclassify.o)
 .data          0x00000000001310f0        0x0 /opt/devkitpro/devkitARM/lib/gcc/arm-none-eabi/4.9.2/../../../../arm-none-eabi/lib/armv6k/fpu/libg.a(lib_a-s_frexp.o)
 .data          0x00000000001310f0        0x0 /opt/devkitpro/devkitARM/lib/gcc/arm-none-eabi/4.9.2/../../../../arm-none-eabi/lib/armv6k/fpu/libg.a(lib_a-sprintf.o)
 .data          0x00000000001310f0        0x0 /opt/devkitpro/devkitARM/lib/gcc/arm-none-eabi/4.9.2/../../../../arm-none-eabi/lib/armv6k/fpu/libg.a(lib_a-stpncpy.o)
 .data          0x00000000001310f0        0x0 /opt/devkitpro/devkitARM/lib/gcc/arm-none-eabi/4.9.2/../../../../arm-none-eabi/lib/armv6k/fpu/libg.a(lib_a-strcasecmp.o)
 .data          0x00000000001310f0        0x0 /opt/devkitpro/devkitARM/lib/gcc/arm-none-eabi/4.9.2/../../../../arm-none-eabi/lib/armv6k/fpu/libg.a(lib_a-strcat.o)
 .data          0x00000000001310f0        0x0 /opt/devkitpro/devkitARM/lib/gcc/arm-none-eabi/4.9.2/../../../../arm-none-eabi/lib/armv6k/fpu/libg.a(lib_a-strcmp.o)
 .data          0x00000000001310f0        0x0 /opt/devkitpro/devkitARM/lib/gcc/arm-none-eabi/4.9.2/../../../../arm-none-eabi/lib/armv6k/fpu/libg.a(lib_a-strlcpy.o)
 .data          0x00000000001310f0        0x0 /opt/devkitpro/devkitARM/lib/gcc/arm-none-eabi/4.9.2/../../../../arm-none-eabi/lib/armv6k/fpu/libg.a(lib_a-strncasecmp.o)
 .data          0x00000000001310f0        0x0 /opt/devkitpro/devkitARM/lib/gcc/arm-none-eabi/4.9.2/../../../../arm-none-eabi/lib/armv6k/fpu/libg.a(lib_a-strncmp.o)
 .data          0x00000000001310f0        0x0 /opt/devkitpro/devkitARM/lib/gcc/arm-none-eabi/4.9.2/../../../../arm-none-eabi/lib/armv6k/fpu/libg.a(lib_a-strtod.o)
 .data          0x00000000001310f0        0x0 /opt/devkitpro/devkitARM/lib/gcc/arm-none-eabi/4.9.2/../../../../arm-none-eabi/lib/armv6k/fpu/libg.a(lib_a-strtoll_r.o)
 .data          0x00000000001310f0        0x0 /opt/devkitpro/devkitARM/lib/gcc/arm-none-eabi/4.9.2/../../../../arm-none-eabi/lib/armv6k/fpu/libg.a(lib_a-strtol.o)
 .data          0x00000000001310f0        0x0 /opt/devkitpro/devkitARM/lib/gcc/arm-none-eabi/4.9.2/../../../../arm-none-eabi/lib/armv6k/fpu/libg.a(lib_a-strtoull_r.o)
 .data          0x00000000001310f0        0x0 /opt/devkitpro/devkitARM/lib/gcc/arm-none-eabi/4.9.2/../../../../arm-none-eabi/lib/armv6k/fpu/libg.a(lib_a-strtoul.o)
 .data          0x00000000001310f0        0x0 /opt/devkitpro/devkitARM/lib/gcc/arm-none-eabi/4.9.2/../../../../arm-none-eabi/lib/armv6k/fpu/libg.a(lib_a-svfiprintf.o)
 .data          0x00000000001310f0        0x0 /opt/devkitpro/devkitARM/lib/gcc/arm-none-eabi/4.9.2/../../../../arm-none-eabi/lib/armv6k/fpu/libg.a(lib_a-svfiscanf.o)
 .data          0x00000000001310f0        0x0 /opt/devkitpro/devkitARM/lib/gcc/arm-none-eabi/4.9.2/../../../../arm-none-eabi/lib/armv6k/fpu/libg.a(lib_a-svfprintf.o)
 .data          0x00000000001310f0        0x0 /opt/devkitpro/devkitARM/lib/gcc/arm-none-eabi/4.9.2/../../../../arm-none-eabi/lib/armv6k/fpu/libg.a(lib_a-ungetc.o)
 .data          0x00000000001310f0        0x0 /opt/devkitpro/devkitARM/lib/gcc/arm-none-eabi/4.9.2/../../../../arm-none-eabi/lib/armv6k/fpu/libg.a(lib_a-wbuf.o)
 .data          0x00000000001310f0        0x0 /opt/devkitpro/devkitARM/lib/gcc/arm-none-eabi/4.9.2/../../../../arm-none-eabi/lib/armv6k/fpu/libg.a(lib_a-wcsnrtombs.o)
 .data          0x00000000001310f0        0x0 /opt/devkitpro/devkitARM/lib/gcc/arm-none-eabi/4.9.2/../../../../arm-none-eabi/lib/armv6k/fpu/libg.a(lib_a-callocr.o)
 .data          0x00000000001310f0        0x0 /opt/devkitpro/devkitARM/lib/gcc/arm-none-eabi/4.9.2/../../../../arm-none-eabi/lib/armv6k/fpu/libg.a(lib_a-fclose.o)
 .data          0x00000000001310f0        0x0 /opt/devkitpro/devkitARM/lib/gcc/arm-none-eabi/4.9.2/../../../../arm-none-eabi/lib/armv6k/fpu/libg.a(lib_a-gdtoa-gethex.o)
 .data          0x00000000001310f0        0x0 /opt/devkitpro/devkitARM/lib/gcc/arm-none-eabi/4.9.2/../../../../arm-none-eabi/lib/armv6k/fpu/libg.a(lib_a-gdtoa-hexnan.o)
 .data          0x00000000001310f0        0x0 /opt/devkitpro/devkitARM/lib/gcc/arm-none-eabi/4.9.2/../../../../arm-none-eabi/lib/armv6k/fpu/libg.a(lib_a-getenv_r.o)
 .data          0x00000000001310f0        0x0 /opt/devkitpro/devkitARM/lib/gcc/arm-none-eabi/4.9.2/../../../../arm-none-eabi/lib/armv6k/fpu/libg.a(lib_a-environ.o)
 .data          0x00000000001310f0        0x0 /opt/devkitpro/devkitARM/lib/gcc/arm-none-eabi/4.9.2/../../../../arm-none-eabi/lib/armv6k/fpu/libg.a(lib_a-envlock.o)
 .data          0x00000000001310f0       0x44 /opt/devkitpro/devkitARM/lib/gcc/arm-none-eabi/4.9.2/../../../../arm-none-eabi/lib/armv6k/fpu/libsysbase.a(iosupport.o)
                0x00000000001310f4                devoptab_list
 .data          0x0000000000131134        0x0 /opt/devkitpro/devkitARM/lib/gcc/arm-none-eabi/4.9.2/../../../../arm-none-eabi/lib/armv6k/fpu/libsysbase.a(close.o)
 .data          0x0000000000131134        0x0 /opt/devkitpro/devkitARM/lib/gcc/arm-none-eabi/4.9.2/../../../../arm-none-eabi/lib/armv6k/fpu/libsysbase.a(fstat.o)
 .data          0x0000000000131134        0x0 /opt/devkitpro/devkitARM/lib/gcc/arm-none-eabi/4.9.2/../../../../arm-none-eabi/lib/armv6k/fpu/libsysbase.a(isatty.o)
 .data          0x0000000000131134        0x0 /opt/devkitpro/devkitARM/lib/gcc/arm-none-eabi/4.9.2/../../../../arm-none-eabi/lib/armv6k/fpu/libsysbase.a(lseek.o)
 .data          0x0000000000131134        0x0 /opt/devkitpro/devkitARM/lib/gcc/arm-none-eabi/4.9.2/../../../../arm-none-eabi/lib/armv6k/fpu/libsysbase.a(read.o)
 .data          0x0000000000131134        0x0 /opt/devkitpro/devkitARM/lib/gcc/arm-none-eabi/4.9.2/../../../../arm-none-eabi/lib/armv6k/fpu/libsysbase.a(sbrk.o)
 .data          0x0000000000131134        0x0 /opt/devkitpro/devkitARM/lib/gcc/arm-none-eabi/4.9.2/../../../../arm-none-eabi/lib/armv6k/fpu/libsysbase.a(write.o)
 .data          0x0000000000131134        0x0 /opt/devkitpro/devkitARM/lib/gcc/arm-none-eabi/4.9.2/../../../../arm-none-eabi/lib/armv6k/fpu/libsysbase.a(malloc_vars.o)
 .data          0x0000000000131134     0x1000 /opt/devkitpro/devkitARM/lib/gcc/arm-none-eabi/4.9.2/../../../../arm-none-eabi/lib/armv6k/fpu/libsysbase.a(chdir.o)
 .data          0x0000000000132134        0x0 /opt/devkitpro/devkitARM/lib/gcc/arm-none-eabi/4.9.2/../../../../arm-none-eabi/lib/armv6k/fpu/libsysbase.a(flock.o)
 .data          0x0000000000132134        0x0 /opt/devkitpro/devkitARM/lib/gcc/arm-none-eabi/4.9.2/../../../../arm-none-eabi/lib/armv6k/fpu/libsysbase.a(syscall_support.o)
 .data          0x0000000000132134     0x1024 /opt/devkitpro/devkitARM/lib/gcc/arm-none-eabi/4.9.2/../../../../arm-none-eabi/lib/armv6k/fpu/libsysbase.a(handle_manager.o)
 .data          0x0000000000133158        0x0 /opt/devkitpro/devkitARM/lib/gcc/arm-none-eabi/4.9.2/../../../../arm-none-eabi/lib/armv6k/fpu/libsysbase.a(getreent.o)
 .data          0x0000000000133158        0x0 /opt/devkitpro/devkitARM/lib/gcc/arm-none-eabi/4.9.2/armv6k/fpu/libgcc.a(_udivsi3.o)
 .data          0x0000000000133158        0x0 /opt/devkitpro/devkitARM/lib/gcc/arm-none-eabi/4.9.2/armv6k/fpu/libgcc.a(_aeabi_uldivmod.o)
 .data          0x0000000000133158        0x0 /opt/devkitpro/devkitARM/lib/gcc/arm-none-eabi/4.9.2/armv6k/fpu/libgcc.a(bpabi.o)
 .data          0x0000000000133158        0x0 /opt/devkitpro/devkitARM/lib/gcc/arm-none-eabi/4.9.2/armv6k/fpu/libgcc.a(_divdi3.o)
 .data          0x0000000000133158        0x0 /opt/devkitpro/devkitARM/lib/gcc/arm-none-eabi/4.9.2/armv6k/fpu/libgcc.a(_udivdi3.o)
 .data          0x0000000000133158        0x0 /opt/devkitpro/devkitARM/lib/gcc/arm-none-eabi/4.9.2/../../../../arm-none-eabi/lib/armv6k/fpu/libg.a(lib_a-errno.o)
 .data          0x0000000000133158        0x0 /opt/devkitpro/devkitARM/lib/gcc/arm-none-eabi/4.9.2/../../../../arm-none-eabi/lib/armv6k/fpu/libg.a(lib_a-strnlen.o)
 .data          0x0000000000133158        0x0 /opt/devkitpro/devkitARM/lib/gcc/arm-none-eabi/4.9.2/../../../../arm-none-eabi/lib/armv6k/fpu/libg.a(lib_a-strrchr.o)
 .data          0x0000000000133158        0x0 /opt/devkitpro/devkitARM/lib/gcc/arm-none-eabi/4.9.2/armv6k/fpu/crtend.o
 .data          0x0000000000133158        0x0 /opt/devkitpro/devkitARM/lib/gcc/arm-none-eabi/4.9.2/armv6k/fpu/crtn.o
 *(.data.*)
 .data.__malloc_av_
                0x0000000000133158      0x408 /opt/devkitpro/devkitARM/lib/gcc/arm-none-eabi/4.9.2/../../../../arm-none-eabi/lib/armv6k/fpu/libg.a(lib_a-mallocr.o)
                0x0000000000133158                __malloc_av_
 .data.__malloc_trim_threshold
                0x0000000000133560        0x4 /opt/devkitpro/devkitARM/lib/gcc/arm-none-eabi/4.9.2/../../../../arm-none-eabi/lib/armv6k/fpu/libg.a(lib_a-mallocr.o)
                0x0000000000133560                __malloc_trim_threshold
 .data.__malloc_sbrk_base
                0x0000000000133564        0x4 /opt/devkitpro/devkitARM/lib/gcc/arm-none-eabi/4.9.2/../../../../arm-none-eabi/lib/armv6k/fpu/libg.a(lib_a-mallocr.o)
                0x0000000000133564                __malloc_sbrk_base
 .data.__wctomb
                0x0000000000133568        0x4 /opt/devkitpro/devkitARM/lib/gcc/arm-none-eabi/4.9.2/../../../../arm-none-eabi/lib/armv6k/fpu/libg.a(lib_a-wctomb_r.o)
                0x0000000000133568                __wctomb
 .data.__ctype_ptr__
                0x000000000013356c        0x4 /opt/devkitpro/devkitARM/lib/gcc/arm-none-eabi/4.9.2/../../../../arm-none-eabi/lib/armv6k/fpu/libg.a(lib_a-ctype_.o)
                0x000000000013356c                __ctype_ptr__
 .data.impure_data
                0x0000000000133570      0x428 /opt/devkitpro/devkitARM/lib/gcc/arm-none-eabi/4.9.2/../../../../arm-none-eabi/lib/armv6k/fpu/libg.a(lib_a-impure.o)
 .data._impure_ptr
                0x0000000000133998        0x4 /opt/devkitpro/devkitARM/lib/gcc/arm-none-eabi/4.9.2/../../../../arm-none-eabi/lib/armv6k/fpu/libg.a(lib_a-impure.o)
                0x0000000000133998                _impure_ptr
 .data.lc_message_charset
                0x000000000013399c       0x20 /opt/devkitpro/devkitARM/lib/gcc/arm-none-eabi/4.9.2/../../../../arm-none-eabi/lib/armv6k/fpu/libg.a(lib_a-locale.o)
 .data.lconv    0x00000000001339bc       0x38 /opt/devkitpro/devkitARM/lib/gcc/arm-none-eabi/4.9.2/../../../../arm-none-eabi/lib/armv6k/fpu/libg.a(lib_a-locale.o)
 .data.current_categories
                0x00000000001339f4       0xe0 /opt/devkitpro/devkitARM/lib/gcc/arm-none-eabi/4.9.2/../../../../arm-none-eabi/lib/armv6k/fpu/libg.a(lib_a-locale.o)
 .data.lc_ctype_charset
                0x0000000000133ad4       0x20 /opt/devkitpro/devkitARM/lib/gcc/arm-none-eabi/4.9.2/../../../../arm-none-eabi/lib/armv6k/fpu/libg.a(lib_a-locale.o)
 .data.__default_locale
                0x0000000000133af4       0x20 /opt/devkitpro/devkitARM/lib/gcc/arm-none-eabi/4.9.2/../../../../arm-none-eabi/lib/armv6k/fpu/libg.a(lib_a-locale.o)
                0x0000000000133af4                __default_locale
 .data.__mb_cur_max
                0x0000000000133b14        0x4 /opt/devkitpro/devkitARM/lib/gcc/arm-none-eabi/4.9.2/../../../../arm-none-eabi/lib/armv6k/fpu/libg.a(lib_a-locale.o)
                0x0000000000133b14                __mb_cur_max
 .data.__mbtowc
                0x0000000000133b18        0x4 /opt/devkitpro/devkitARM/lib/gcc/arm-none-eabi/4.9.2/../../../../arm-none-eabi/lib/armv6k/fpu/libg.a(lib_a-mbtowc_r.o)
                0x0000000000133b18                __mbtowc
 .data.environ  0x0000000000133b1c        0x4 /opt/devkitpro/devkitARM/lib/gcc/arm-none-eabi/4.9.2/../../../../arm-none-eabi/lib/armv6k/fpu/libg.a(lib_a-environ.o)
                0x0000000000133b1c                environ
 *(.gnu.linkonce.d*)
                0x0000000000133b20                . = ALIGN (0x4)

.igot.plt       0x0000000000133b20        0x0
 .igot.plt      0x0000000000133b20        0x0 /opt/devkitpro/devkitARM/lib/gcc/arm-none-eabi/4.9.2/../../../../arm-none-eabi/lib/armv6k/fpu/3dsx_crt0.o

.eh_frame       0x0000000000133b20       0x74
 .eh_frame      0x0000000000133b20        0x0 /opt/devkitpro/devkitARM/lib/gcc/arm-none-eabi/4.9.2/armv6k/fpu/crtbegin.o
 .eh_frame      0x0000000000133b20       0x70 /opt/devkitpro/devkitARM/lib/gcc/arm-none-eabi/4.9.2/../../../../arm-none-eabi/lib/armv6k/fpu/libg.a(lib_a-strcmp.o)
 .eh_frame      0x0000000000133b90        0x4 /opt/devkitpro/devkitARM/lib/gcc/arm-none-eabi/4.9.2/armv6k/fpu/crtend.o

.jcr            0x0000000000133b94        0x4
 .jcr           0x0000000000133b94        0x0 /opt/devkitpro/devkitARM/lib/gcc/arm-none-eabi/4.9.2/armv6k/fpu/crtbegin.o
 .jcr           0x0000000000133b94        0x4 /opt/devkitpro/devkitARM/lib/gcc/arm-none-eabi/4.9.2/armv6k/fpu/crtend.o

.tm_clone_table
                0x0000000000133b98        0x0
 .tm_clone_table
                0x0000000000133b98        0x0 /opt/devkitpro/devkitARM/lib/gcc/arm-none-eabi/4.9.2/armv6k/fpu/crtbegin.o
 .tm_clone_table
                0x0000000000133b98        0x0 /opt/devkitpro/devkitARM/lib/gcc/arm-none-eabi/4.9.2/armv6k/fpu/crtend.o
                0x0000000000133b98                __TMC_END__

.preinit_array  0x0000000000133b98        0x0
                0x0000000000133b98                PROVIDE (__preinit_array_start, .)
 *(.preinit_array)
                0x0000000000133b98                PROVIDE (__preinit_array_end, .)

.init_array     0x0000000000133b98        0x4
                0x0000000000133b98                PROVIDE (__init_array_start, .)
 *(SORT(.init_array.*))
 *(.init_array)
 .init_array    0x0000000000133b98        0x4 /opt/devkitpro/devkitARM/lib/gcc/arm-none-eabi/4.9.2/armv6k/fpu/crtbegin.o
                0x0000000000133b9c                PROVIDE (__init_array_end, .)

.fini_array     0x0000000000133b9c        0x4
                0x0000000000133b9c                PROVIDE (__fini_array_start, .)
 *(.fini_array)
 .fini_array    0x0000000000133b9c        0x4 /opt/devkitpro/devkitARM/lib/gcc/arm-none-eabi/4.9.2/armv6k/fpu/crtbegin.o
 *(SORT(.fini_array.*))
                0x0000000000133ba0                PROVIDE (__fini_array_end, .)

.ctors
 *crtbegin.o(.ctors)
 *(EXCLUDE_FILE(*crtend.o) .ctors)
 *(SORT(.ctors.*))
 *(.ctors)

.dtors
 *crtbegin.o(.dtors)
 *(EXCLUDE_FILE(*crtend.o) .dtors)
 *(SORT(.dtors.*))
 *(.dtors)
                0x0000000000133ba0                __bss_start__ = .

.bss            0x0000000000133ba0     0xb5a4
 *(.dynbss)
 *(.bss)
 .bss           0x0000000000133ba0        0x0 /opt/devkitpro/devkitARM/lib/gcc/arm-none-eabi/4.9.2/../../../../arm-none-eabi/lib/armv6k/fpu/3dsx_crt0.o
 .bss           0x0000000000133ba0        0x0 /opt/devkitpro/devkitARM/lib/gcc/arm-none-eabi/4.9.2/armv6k/fpu/crti.o
 .bss           0x0000000000133ba0       0x1c /opt/devkitpro/devkitARM/lib/gcc/arm-none-eabi/4.9.2/armv6k/fpu/crtbegin.o
 .bss           0x0000000000133bbc        0x0 main.o
 .bss           0x0000000000133bbc        0x0 /opt/devkitpro/libctru/lib/libctru.a(os.o)
 .bss           0x0000000000133bbc        0x0 /opt/devkitpro/libctru/lib/libctru.a(console.o)
 .bss           0x0000000000133bbc        0xc /opt/devkitpro/libctru/lib/libctru.a(gfx.o)
                0x0000000000133bc0                screenFree
 .bss           0x0000000000133bc8        0xc /opt/devkitpro/libctru/lib/libctru.a(gsp.o)
                0x0000000000133bd0                gspGpuHandle
 .bss           0x0000000000133bd4       0x5c /opt/devkitpro/libctru/lib/libctru.a(apt.o)
                0x0000000000133bd8                aptStatusEvent
                0x0000000000133be8                aptStatus
                0x0000000000133bec                aptStatusPower
                0x0000000000133bf0                aptSleepSync
                0x0000000000133c18                aptStatusBeforeSleep
 .bss           0x0000000000133c30        0x0 /opt/devkitpro/libctru/lib/libctru.a(gx.o)
 .bss           0x0000000000133c30        0x0 /opt/devkitpro/libctru/lib/libctru.a(initSystem.o)
 .bss           0x0000000000133c30        0x0 /opt/devkitpro/libctru/lib/libctru.a(allocateHeaps.o)
 .bss           0x0000000000133c30        0x0 /opt/devkitpro/libctru/lib/libctru.a(initArgv.o)
 .bss           0x0000000000133c30        0x0 /opt/devkitpro/libctru/lib/libctru.a(svc.o)
 .bss           0x0000000000133c30        0x8 /opt/devkitpro/libctru/lib/libctru.a(stack_adjust.o)
 .bss           0x0000000000133c38        0x0 /opt/devkitpro/libctru/lib/libctru.a(default_font.bin.o)
 .bss           0x0000000000133c38       0x14 /opt/devkitpro/libctru/lib/libctru.a(vram.o)
 .bss           0x0000000000133c4c       0x14 /opt/devkitpro/libctru/lib/libctru.a(linear.o)
 .bss           0x0000000000133c60        0x0 /opt/devkitpro/libctru/lib/libctru.a(mem_pool.o)
 .bss           0x0000000000133c60        0x4 /opt/devkitpro/libctru/lib/libctru.a(srv.o)
 .bss           0x0000000000133c64        0x0 /opt/devkitpro/libctru/lib/libctru.a(rbtree_init.o)
 .bss           0x0000000000133c64        0x0 /opt/devkitpro/libctru/lib/libctru.a(rbtree_insert.o)
 .bss           0x0000000000133c64        0x0 /opt/devkitpro/libctru/lib/libctru.a(rbtree_rotate.o)
 .bss           0x0000000000133c64        0x0 /opt/devkitpro/libctru/lib/libctru.a(rbtree_remove.o)
 .bss           0x0000000000133c64        0x0 /opt/devkitpro/libctru/lib/libctru.a(rbtree_find.o)
 .bss           0x0000000000133c64        0x0 /opt/devkitpro/libctru/lib/libctru.a(appInit.o)
 .bss           0x0000000000133c64        0x0 /opt/devkitpro/libctru/lib/libctru.a(appExit.o)
 .bss           0x0000000000133c64        0x0 /opt/devkitpro/libctru/lib/libctru.a(ctru_exit.o)
 .bss           0x0000000000133c64     0x700c /opt/devkitpro/libctru/lib/libctru.a(sdmc_dev.o)
 .bss           0x000000000013ac70       0x2c /opt/devkitpro/libctru/lib/libctru.a(hid.o)
 .bss           0x000000000013ac9c        0x8 /opt/devkitpro/libctru/lib/libctru.a(fs.o)
 .bss           0x000000000013aca4        0x0 /opt/devkitpro/libctru/lib/libctru.a(rbtree_iterator.o)
 .bss           0x000000000013aca4        0x0 /opt/devkitpro/libctru/lib/libctru.a(utf8_to_utf16.o)
 .bss           0x000000000013aca4        0x0 /opt/devkitpro/libctru/lib/libctru.a(decode_utf8.o)
 .bss           0x000000000013aca4        0x0 /opt/devkitpro/libctru/lib/libctru.a(utf16_to_utf8.o)
 .bss           0x000000000013aca4        0xc /opt/devkitpro/libctru/lib/libctru.a(irrst.o)
 .bss           0x000000000013acb0        0x0 /opt/devkitpro/libctru/lib/libctru.a(encode_utf16.o)
 .bss           0x000000000013acb0        0x0 /opt/devkitpro/libctru/lib/libctru.a(encode_utf8.o)
 .bss           0x000000000013acb0        0x0 /opt/devkitpro/libctru/lib/libctru.a(decode_utf16.o)
 .bss           0x000000000013acb0        0x0 /opt/devkitpro/devkitARM/lib/gcc/arm-none-eabi/4.9.2/armv6k/fpu/libgcc.a(_divsi3.o)
 .bss           0x000000000013acb0        0x0 /opt/devkitpro/devkitARM/lib/gcc/arm-none-eabi/4.9.2/armv6k/fpu/libgcc.a(_dvmd_tls.o)
 .bss           0x000000000013acb0        0x0 /opt/devkitpro/devkitARM/lib/gcc/arm-none-eabi/4.9.2/../../../../arm-none-eabi/lib/armv6k/fpu/libg.a(lib_a-bsearch.o)
 .bss           0x000000000013acb0        0x0 /opt/devkitpro/devkitARM/lib/gcc/arm-none-eabi/4.9.2/../../../../arm-none-eabi/lib/armv6k/fpu/libg.a(lib_a-fini.o)
 .bss           0x000000000013acb0        0x0 /opt/devkitpro/devkitARM/lib/gcc/arm-none-eabi/4.9.2/../../../../arm-none-eabi/lib/armv6k/fpu/libg.a(lib_a-init.o)
 .bss           0x000000000013acb0        0x0 /opt/devkitpro/devkitARM/lib/gcc/arm-none-eabi/4.9.2/../../../../arm-none-eabi/lib/armv6k/fpu/libg.a(lib_a-iprintf.o)
 .bss           0x000000000013acb0        0x0 /opt/devkitpro/devkitARM/lib/gcc/arm-none-eabi/4.9.2/../../../../arm-none-eabi/lib/armv6k/fpu/libg.a(lib_a-malloc.o)
 .bss           0x000000000013acb0        0x0 /opt/devkitpro/devkitARM/lib/gcc/arm-none-eabi/4.9.2/../../../../arm-none-eabi/lib/armv6k/fpu/libg.a(lib_a-mallocr.o)
 .bss           0x000000000013acb0        0x0 /opt/devkitpro/devkitARM/lib/gcc/arm-none-eabi/4.9.2/../../../../arm-none-eabi/lib/armv6k/fpu/libg.a(lib_a-memcpy.o)
 .bss           0x000000000013acb0        0x0 /opt/devkitpro/devkitARM/lib/gcc/arm-none-eabi/4.9.2/../../../../arm-none-eabi/lib/armv6k/fpu/libg.a(lib_a-memset.o)
 .bss           0x000000000013acb0        0x0 /opt/devkitpro/devkitARM/lib/gcc/arm-none-eabi/4.9.2/../../../../arm-none-eabi/lib/armv6k/fpu/libg.a(lib_a-mlock.o)
 .bss           0x000000000013acb0        0x0 /opt/devkitpro/devkitARM/lib/gcc/arm-none-eabi/4.9.2/../../../../arm-none-eabi/lib/armv6k/fpu/libg.a(lib_a-printf.o)
 .bss           0x000000000013acb0        0x0 /opt/devkitpro/devkitARM/lib/gcc/arm-none-eabi/4.9.2/../../../../arm-none-eabi/lib/armv6k/fpu/libg.a(lib_a-setvbuf.o)
 .bss           0x000000000013acb0        0x0 /opt/devkitpro/devkitARM/lib/gcc/arm-none-eabi/4.9.2/../../../../arm-none-eabi/lib/armv6k/fpu/libg.a(lib_a-sscanf.o)
 .bss           0x000000000013acb0        0x0 /opt/devkitpro/devkitARM/lib/gcc/arm-none-eabi/4.9.2/../../../../arm-none-eabi/lib/armv6k/fpu/libg.a(lib_a-stdio.o)
 .bss           0x000000000013acb0        0x0 /opt/devkitpro/devkitARM/lib/gcc/arm-none-eabi/4.9.2/../../../../arm-none-eabi/lib/armv6k/fpu/libg.a(lib_a-strchr.o)
 .bss           0x000000000013acb0        0x0 /opt/devkitpro/devkitARM/lib/gcc/arm-none-eabi/4.9.2/../../../../arm-none-eabi/lib/armv6k/fpu/libg.a(lib_a-strcpy.o)
 .bss           0x000000000013acb0        0x0 /opt/devkitpro/devkitARM/lib/gcc/arm-none-eabi/4.9.2/../../../../arm-none-eabi/lib/armv6k/fpu/libg.a(lib_a-strlen.o)
 .bss           0x000000000013acb0        0x0 /opt/devkitpro/devkitARM/lib/gcc/arm-none-eabi/4.9.2/../../../../arm-none-eabi/lib/armv6k/fpu/libg.a(lib_a-strncat.o)
 .bss           0x000000000013acb0        0x0 /opt/devkitpro/devkitARM/lib/gcc/arm-none-eabi/4.9.2/../../../../arm-none-eabi/lib/armv6k/fpu/libg.a(lib_a-strncpy.o)
 .bss           0x000000000013acb0        0x0 /opt/devkitpro/devkitARM/lib/gcc/arm-none-eabi/4.9.2/../../../../arm-none-eabi/lib/armv6k/fpu/libg.a(lib_a-svfscanf.o)
 .bss           0x000000000013acb0        0x0 /opt/devkitpro/devkitARM/lib/gcc/arm-none-eabi/4.9.2/../../../../arm-none-eabi/lib/armv6k/fpu/libg.a(lib_a-vfiprintf.o)
 .bss           0x000000000013acb0        0x0 /opt/devkitpro/devkitARM/lib/gcc/arm-none-eabi/4.9.2/../../../../arm-none-eabi/lib/armv6k/fpu/libg.a(lib_a-vfprintf.o)
 .bss           0x000000000013acb0        0x0 /opt/devkitpro/devkitARM/lib/gcc/arm-none-eabi/4.9.2/../../../../arm-none-eabi/lib/armv6k/fpu/libg.a(lib_a-wcrtomb.o)
 .bss           0x000000000013acb0        0x0 /opt/devkitpro/devkitARM/lib/gcc/arm-none-eabi/4.9.2/../../../../arm-none-eabi/lib/armv6k/fpu/libg.a(lib_a-wcsrtombs.o)
 .bss           0x000000000013acb0        0x0 /opt/devkitpro/devkitARM/lib/gcc/arm-none-eabi/4.9.2/../../../../arm-none-eabi/lib/armv6k/fpu/libg.a(lib_a-wctomb_r.o)
 .bss           0x000000000013acb0        0x0 /opt/devkitpro/devkitARM/lib/gcc/arm-none-eabi/4.9.2/../../../../arm-none-eabi/lib/armv6k/fpu/libg.a(lib_a-wsetup.o)
 .bss           0x000000000013acb0        0x0 /opt/devkitpro/devkitARM/lib/gcc/arm-none-eabi/4.9.2/../../../../arm-none-eabi/lib/armv6k/fpu/libg.a(lib_a-ctype_.o)
 .bss           0x000000000013acb0        0x0 /opt/devkitpro/devkitARM/lib/gcc/arm-none-eabi/4.9.2/../../../../arm-none-eabi/lib/armv6k/fpu/libg.a(lib_a-dtoa.o)
 .bss           0x000000000013acb0        0x0 /opt/devkitpro/devkitARM/lib/gcc/arm-none-eabi/4.9.2/../../../../arm-none-eabi/lib/armv6k/fpu/libg.a(lib_a-fflush.o)
 .bss           0x000000000013acb0        0x0 /opt/devkitpro/devkitARM/lib/gcc/arm-none-eabi/4.9.2/../../../../arm-none-eabi/lib/armv6k/fpu/libg.a(lib_a-findfp.o)
 .bss           0x000000000013acb0        0x0 /opt/devkitpro/devkitARM/lib/gcc/arm-none-eabi/4.9.2/../../../../arm-none-eabi/lib/armv6k/fpu/libg.a(lib_a-fputwc.o)
 .bss           0x000000000013acb0        0x0 /opt/devkitpro/devkitARM/lib/gcc/arm-none-eabi/4.9.2/../../../../arm-none-eabi/lib/armv6k/fpu/libg.a(lib_a-freer.o)
 .bss           0x000000000013acb0        0x0 /opt/devkitpro/devkitARM/lib/gcc/arm-none-eabi/4.9.2/../../../../arm-none-eabi/lib/armv6k/fpu/libg.a(lib_a-fvwrite.o)
 .bss           0x000000000013acb0        0x0 /opt/devkitpro/devkitARM/lib/gcc/arm-none-eabi/4.9.2/../../../../arm-none-eabi/lib/armv6k/fpu/libg.a(lib_a-fwalk.o)
 .bss           0x000000000013acb0        0x0 /opt/devkitpro/devkitARM/lib/gcc/arm-none-eabi/4.9.2/../../../../arm-none-eabi/lib/armv6k/fpu/libg.a(lib_a-impure.o)
 .bss           0x000000000013acb0        0x0 /opt/devkitpro/devkitARM/lib/gcc/arm-none-eabi/4.9.2/../../../../arm-none-eabi/lib/armv6k/fpu/libg.a(lib_a-iswspace.o)
 .bss           0x000000000013acb0        0x0 /opt/devkitpro/devkitARM/lib/gcc/arm-none-eabi/4.9.2/../../../../arm-none-eabi/lib/armv6k/fpu/libg.a(lib_a-jp2uc.o)
 .bss           0x000000000013acb0        0x0 /opt/devkitpro/devkitARM/lib/gcc/arm-none-eabi/4.9.2/../../../../arm-none-eabi/lib/armv6k/fpu/libg.a(lib_a-locale.o)
 .bss           0x000000000013acb0        0x0 /opt/devkitpro/devkitARM/lib/gcc/arm-none-eabi/4.9.2/../../../../arm-none-eabi/lib/armv6k/fpu/libg.a(lib_a-makebuf.o)
 .bss           0x000000000013acb0        0x0 /opt/devkitpro/devkitARM/lib/gcc/arm-none-eabi/4.9.2/../../../../arm-none-eabi/lib/armv6k/fpu/libg.a(lib_a-mbrtowc.o)
 .bss           0x000000000013acb0        0x0 /opt/devkitpro/devkitARM/lib/gcc/arm-none-eabi/4.9.2/../../../../arm-none-eabi/lib/armv6k/fpu/libg.a(lib_a-mbtowc_r.o)
 .bss           0x000000000013acb0        0x0 /opt/devkitpro/devkitARM/lib/gcc/arm-none-eabi/4.9.2/../../../../arm-none-eabi/lib/armv6k/fpu/libg.a(lib_a-memchr.o)
 .bss           0x000000000013acb0        0x0 /opt/devkitpro/devkitARM/lib/gcc/arm-none-eabi/4.9.2/../../../../arm-none-eabi/lib/armv6k/fpu/libg.a(lib_a-memmove.o)
 .bss           0x000000000013acb0        0x0 /opt/devkitpro/devkitARM/lib/gcc/arm-none-eabi/4.9.2/../../../../arm-none-eabi/lib/armv6k/fpu/libg.a(lib_a-mprec.o)
 .bss           0x000000000013acb0        0x0 /opt/devkitpro/devkitARM/lib/gcc/arm-none-eabi/4.9.2/../../../../arm-none-eabi/lib/armv6k/fpu/libg.a(lib_a-reallocr.o)
 .bss           0x000000000013acb0        0x0 /opt/devkitpro/devkitARM/lib/gcc/arm-none-eabi/4.9.2/../../../../arm-none-eabi/lib/armv6k/fpu/libg.a(lib_a-sccl.o)
 .bss           0x000000000013acb0        0x0 /opt/devkitpro/devkitARM/lib/gcc/arm-none-eabi/4.9.2/../../../../arm-none-eabi/lib/armv6k/fpu/libg.a(lib_a-sf_nan.o)
 .bss           0x000000000013acb0        0x0 /opt/devkitpro/devkitARM/lib/gcc/arm-none-eabi/4.9.2/../../../../arm-none-eabi/lib/armv6k/fpu/libg.a(lib_a-s_fpclassify.o)
 .bss           0x000000000013acb0        0x0 /opt/devkitpro/devkitARM/lib/gcc/arm-none-eabi/4.9.2/../../../../arm-none-eabi/lib/armv6k/fpu/libg.a(lib_a-s_frexp.o)
 .bss           0x000000000013acb0        0x0 /opt/devkitpro/devkitARM/lib/gcc/arm-none-eabi/4.9.2/../../../../arm-none-eabi/lib/armv6k/fpu/libg.a(lib_a-sprintf.o)
 .bss           0x000000000013acb0        0x0 /opt/devkitpro/devkitARM/lib/gcc/arm-none-eabi/4.9.2/../../../../arm-none-eabi/lib/armv6k/fpu/libg.a(lib_a-stpncpy.o)
 .bss           0x000000000013acb0        0x0 /opt/devkitpro/devkitARM/lib/gcc/arm-none-eabi/4.9.2/../../../../arm-none-eabi/lib/armv6k/fpu/libg.a(lib_a-strcasecmp.o)
 .bss           0x000000000013acb0        0x0 /opt/devkitpro/devkitARM/lib/gcc/arm-none-eabi/4.9.2/../../../../arm-none-eabi/lib/armv6k/fpu/libg.a(lib_a-strcat.o)
 .bss           0x000000000013acb0        0x0 /opt/devkitpro/devkitARM/lib/gcc/arm-none-eabi/4.9.2/../../../../arm-none-eabi/lib/armv6k/fpu/libg.a(lib_a-strcmp.o)
 .bss           0x000000000013acb0        0x0 /opt/devkitpro/devkitARM/lib/gcc/arm-none-eabi/4.9.2/../../../../arm-none-eabi/lib/armv6k/fpu/libg.a(lib_a-strlcpy.o)
 .bss           0x000000000013acb0        0x0 /opt/devkitpro/devkitARM/lib/gcc/arm-none-eabi/4.9.2/../../../../arm-none-eabi/lib/armv6k/fpu/libg.a(lib_a-strncasecmp.o)
 .bss           0x000000000013acb0        0x0 /opt/devkitpro/devkitARM/lib/gcc/arm-none-eabi/4.9.2/../../../../arm-none-eabi/lib/armv6k/fpu/libg.a(lib_a-strncmp.o)
 .bss           0x000000000013acb0        0x0 /opt/devkitpro/devkitARM/lib/gcc/arm-none-eabi/4.9.2/../../../../arm-none-eabi/lib/armv6k/fpu/libg.a(lib_a-strtod.o)
 .bss           0x000000000013acb0        0x0 /opt/devkitpro/devkitARM/lib/gcc/arm-none-eabi/4.9.2/../../../../arm-none-eabi/lib/armv6k/fpu/libg.a(lib_a-strtoll_r.o)
 .bss           0x000000000013acb0        0x0 /opt/devkitpro/devkitARM/lib/gcc/arm-none-eabi/4.9.2/../../../../arm-none-eabi/lib/armv6k/fpu/libg.a(lib_a-strtol.o)
 .bss           0x000000000013acb0        0x0 /opt/devkitpro/devkitARM/lib/gcc/arm-none-eabi/4.9.2/../../../../arm-none-eabi/lib/armv6k/fpu/libg.a(lib_a-strtoull_r.o)
 .bss           0x000000000013acb0        0x0 /opt/devkitpro/devkitARM/lib/gcc/arm-none-eabi/4.9.2/../../../../arm-none-eabi/lib/armv6k/fpu/libg.a(lib_a-strtoul.o)
 .bss           0x000000000013acb0        0x0 /opt/devkitpro/devkitARM/lib/gcc/arm-none-eabi/4.9.2/../../../../arm-none-eabi/lib/armv6k/fpu/libg.a(lib_a-svfiprintf.o)
 .bss           0x000000000013acb0        0x0 /opt/devkitpro/devkitARM/lib/gcc/arm-none-eabi/4.9.2/../../../../arm-none-eabi/lib/armv6k/fpu/libg.a(lib_a-svfiscanf.o)
 .bss           0x000000000013acb0        0x0 /opt/devkitpro/devkitARM/lib/gcc/arm-none-eabi/4.9.2/../../../../arm-none-eabi/lib/armv6k/fpu/libg.a(lib_a-svfprintf.o)
 .bss           0x000000000013acb0        0x0 /opt/devkitpro/devkitARM/lib/gcc/arm-none-eabi/4.9.2/../../../../arm-none-eabi/lib/armv6k/fpu/libg.a(lib_a-ungetc.o)
 .bss           0x000000000013acb0        0x0 /opt/devkitpro/devkitARM/lib/gcc/arm-none-eabi/4.9.2/../../../../arm-none-eabi/lib/armv6k/fpu/libg.a(lib_a-wbuf.o)
 .bss           0x000000000013acb0        0x0 /opt/devkitpro/devkitARM/lib/gcc/arm-none-eabi/4.9.2/../../../../arm-none-eabi/lib/armv6k/fpu/libg.a(lib_a-wcsnrtombs.o)
 .bss           0x000000000013acb0        0x0 /opt/devkitpro/devkitARM/lib/gcc/arm-none-eabi/4.9.2/../../../../arm-none-eabi/lib/armv6k/fpu/libg.a(lib_a-callocr.o)
 .bss           0x000000000013acb0        0x0 /opt/devkitpro/devkitARM/lib/gcc/arm-none-eabi/4.9.2/../../../../arm-none-eabi/lib/armv6k/fpu/libg.a(lib_a-fclose.o)
 .bss           0x000000000013acb0        0x0 /opt/devkitpro/devkitARM/lib/gcc/arm-none-eabi/4.9.2/../../../../arm-none-eabi/lib/armv6k/fpu/libg.a(lib_a-gdtoa-gethex.o)
 .bss           0x000000000013acb0        0x0 /opt/devkitpro/devkitARM/lib/gcc/arm-none-eabi/4.9.2/../../../../arm-none-eabi/lib/armv6k/fpu/libg.a(lib_a-gdtoa-hexnan.o)
 .bss           0x000000000013acb0        0x0 /opt/devkitpro/devkitARM/lib/gcc/arm-none-eabi/4.9.2/../../../../arm-none-eabi/lib/armv6k/fpu/libg.a(lib_a-getenv_r.o)
 .bss           0x000000000013acb0        0x0 /opt/devkitpro/devkitARM/lib/gcc/arm-none-eabi/4.9.2/../../../../arm-none-eabi/lib/armv6k/fpu/libg.a(lib_a-environ.o)
 .bss           0x000000000013acb0        0x0 /opt/devkitpro/devkitARM/lib/gcc/arm-none-eabi/4.9.2/../../../../arm-none-eabi/lib/armv6k/fpu/libg.a(lib_a-envlock.o)
 .bss           0x000000000013acb0        0x0 /opt/devkitpro/devkitARM/lib/gcc/arm-none-eabi/4.9.2/../../../../arm-none-eabi/lib/armv6k/fpu/libsysbase.a(iosupport.o)
 .bss           0x000000000013acb0        0x0 /opt/devkitpro/devkitARM/lib/gcc/arm-none-eabi/4.9.2/../../../../arm-none-eabi/lib/armv6k/fpu/libsysbase.a(close.o)
 .bss           0x000000000013acb0        0x0 /opt/devkitpro/devkitARM/lib/gcc/arm-none-eabi/4.9.2/../../../../arm-none-eabi/lib/armv6k/fpu/libsysbase.a(fstat.o)
 .bss           0x000000000013acb0        0x0 /opt/devkitpro/devkitARM/lib/gcc/arm-none-eabi/4.9.2/../../../../arm-none-eabi/lib/armv6k/fpu/libsysbase.a(isatty.o)
 .bss           0x000000000013acb0        0x0 /opt/devkitpro/devkitARM/lib/gcc/arm-none-eabi/4.9.2/../../../../arm-none-eabi/lib/armv6k/fpu/libsysbase.a(lseek.o)
 .bss           0x000000000013acb0        0x0 /opt/devkitpro/devkitARM/lib/gcc/arm-none-eabi/4.9.2/../../../../arm-none-eabi/lib/armv6k/fpu/libsysbase.a(read.o)
 .bss           0x000000000013acb0        0x4 /opt/devkitpro/devkitARM/lib/gcc/arm-none-eabi/4.9.2/../../../../arm-none-eabi/lib/armv6k/fpu/libsysbase.a(sbrk.o)
 .bss           0x000000000013acb4        0x0 /opt/devkitpro/devkitARM/lib/gcc/arm-none-eabi/4.9.2/../../../../arm-none-eabi/lib/armv6k/fpu/libsysbase.a(write.o)
 .bss           0x000000000013acb4        0x8 /opt/devkitpro/devkitARM/lib/gcc/arm-none-eabi/4.9.2/../../../../arm-none-eabi/lib/armv6k/fpu/libsysbase.a(malloc_vars.o)
                0x000000000013acb4                fake_heap_start
                0x000000000013acb8                fake_heap_end
 .bss           0x000000000013acbc     0x1000 /opt/devkitpro/devkitARM/lib/gcc/arm-none-eabi/4.9.2/../../../../arm-none-eabi/lib/armv6k/fpu/libsysbase.a(chdir.o)
 .bss           0x000000000013bcbc        0x0 /opt/devkitpro/devkitARM/lib/gcc/arm-none-eabi/4.9.2/../../../../arm-none-eabi/lib/armv6k/fpu/libsysbase.a(flock.o)
 .bss           0x000000000013bcbc       0x40 /opt/devkitpro/devkitARM/lib/gcc/arm-none-eabi/4.9.2/../../../../arm-none-eabi/lib/armv6k/fpu/libsysbase.a(syscall_support.o)
                0x000000000013bcbc                __syscalls
 .bss           0x000000000013bcfc        0x0 /opt/devkitpro/devkitARM/lib/gcc/arm-none-eabi/4.9.2/../../../../arm-none-eabi/lib/armv6k/fpu/libsysbase.a(handle_manager.o)
 .bss           0x000000000013bcfc        0x0 /opt/devkitpro/devkitARM/lib/gcc/arm-none-eabi/4.9.2/../../../../arm-none-eabi/lib/armv6k/fpu/libsysbase.a(getreent.o)
 .bss           0x000000000013bcfc        0x0 /opt/devkitpro/devkitARM/lib/gcc/arm-none-eabi/4.9.2/armv6k/fpu/libgcc.a(_udivsi3.o)
 .bss           0x000000000013bcfc        0x0 /opt/devkitpro/devkitARM/lib/gcc/arm-none-eabi/4.9.2/armv6k/fpu/libgcc.a(_aeabi_uldivmod.o)
 .bss           0x000000000013bcfc        0x0 /opt/devkitpro/devkitARM/lib/gcc/arm-none-eabi/4.9.2/armv6k/fpu/libgcc.a(bpabi.o)
 .bss           0x000000000013bcfc        0x0 /opt/devkitpro/devkitARM/lib/gcc/arm-none-eabi/4.9.2/armv6k/fpu/libgcc.a(_divdi3.o)
 .bss           0x000000000013bcfc        0x0 /opt/devkitpro/devkitARM/lib/gcc/arm-none-eabi/4.9.2/armv6k/fpu/libgcc.a(_udivdi3.o)
 .bss           0x000000000013bcfc        0x0 /opt/devkitpro/devkitARM/lib/gcc/arm-none-eabi/4.9.2/../../../../arm-none-eabi/lib/armv6k/fpu/libg.a(lib_a-errno.o)
 .bss           0x000000000013bcfc        0x0 /opt/devkitpro/devkitARM/lib/gcc/arm-none-eabi/4.9.2/../../../../arm-none-eabi/lib/armv6k/fpu/libg.a(lib_a-strnlen.o)
 .bss           0x000000000013bcfc        0x0 /opt/devkitpro/devkitARM/lib/gcc/arm-none-eabi/4.9.2/../../../../arm-none-eabi/lib/armv6k/fpu/libg.a(lib_a-strrchr.o)
 .bss           0x000000000013bcfc        0x0 /opt/devkitpro/devkitARM/lib/gcc/arm-none-eabi/4.9.2/armv6k/fpu/crtend.o
 .bss           0x000000000013bcfc        0x0 /opt/devkitpro/devkitARM/lib/gcc/arm-none-eabi/4.9.2/armv6k/fpu/crtn.o
 *(.bss.*)
 .bss.__malloc_max_total_mem
                0x000000000013bcfc        0x4 /opt/devkitpro/devkitARM/lib/gcc/arm-none-eabi/4.9.2/../../../../arm-none-eabi/lib/armv6k/fpu/libg.a(lib_a-mallocr.o)
                0x000000000013bcfc                __malloc_max_total_mem
 .bss.__malloc_max_sbrked_mem
                0x000000000013bd00        0x4 /opt/devkitpro/devkitARM/lib/gcc/arm-none-eabi/4.9.2/../../../../arm-none-eabi/lib/armv6k/fpu/libg.a(lib_a-mallocr.o)
                0x000000000013bd00                __malloc_max_sbrked_mem
 .bss.__malloc_top_pad
                0x000000000013bd04        0x4 /opt/devkitpro/devkitARM/lib/gcc/arm-none-eabi/4.9.2/../../../../arm-none-eabi/lib/armv6k/fpu/libg.a(lib_a-mallocr.o)
                0x000000000013bd04                __malloc_top_pad
 .bss.__malloc_current_mallinfo
                0x000000000013bd08       0x28 /opt/devkitpro/devkitARM/lib/gcc/arm-none-eabi/4.9.2/../../../../arm-none-eabi/lib/armv6k/fpu/libg.a(lib_a-mallocr.o)
                0x000000000013bd08                __malloc_current_mallinfo
 .bss._PathLocale
                0x000000000013bd30        0x4 /opt/devkitpro/devkitARM/lib/gcc/arm-none-eabi/4.9.2/../../../../arm-none-eabi/lib/armv6k/fpu/libg.a(lib_a-locale.o)
                0x000000000013bd30                _PathLocale
 .bss.__nlocale_changed
                0x000000000013bd34        0x4 /opt/devkitpro/devkitARM/lib/gcc/arm-none-eabi/4.9.2/../../../../arm-none-eabi/lib/armv6k/fpu/libg.a(lib_a-locale.o)
                0x000000000013bd34                __nlocale_changed
 .bss.__mlocale_changed
                0x000000000013bd38        0x4 /opt/devkitpro/devkitARM/lib/gcc/arm-none-eabi/4.9.2/../../../../arm-none-eabi/lib/armv6k/fpu/libg.a(lib_a-locale.o)
                0x000000000013bd38                __mlocale_changed
 .bss.lc_ctype_cjk_lang
                0x000000000013bd3c        0x4 /opt/devkitpro/devkitARM/lib/gcc/arm-none-eabi/4.9.2/../../../../arm-none-eabi/lib/armv6k/fpu/libg.a(lib_a-locale.o)
 .bss.new_categories
                0x000000000013bd40       0xe0 /opt/devkitpro/devkitARM/lib/gcc/arm-none-eabi/4.9.2/../../../../arm-none-eabi/lib/armv6k/fpu/libg.a(lib_a-locale.o)
 .bss.current_locale_string
                0x000000000013be20       0xe8 /opt/devkitpro/devkitARM/lib/gcc/arm-none-eabi/4.9.2/../../../../arm-none-eabi/lib/armv6k/fpu/libg.a(lib_a-locale.o)
 .bss.saved_categories
                0x000000000013bf08       0xe0 /opt/devkitpro/devkitARM/lib/gcc/arm-none-eabi/4.9.2/../../../../arm-none-eabi/lib/armv6k/fpu/libg.a(lib_a-locale.o)
 .bss.initial_env
                0x000000000013bfe8        0x4 /opt/devkitpro/devkitARM/lib/gcc/arm-none-eabi/4.9.2/../../../../arm-none-eabi/lib/armv6k/fpu/libg.a(lib_a-environ.o)
 *(.gnu.linkonce.b*)
 *(COMMON)
 COMMON         0x000000000013bfec       0x4c /opt/devkitpro/libctru/lib/libctru.a(console.o)
                0x000000000013bfec                currentCopy
 COMMON         0x000000000013c038       0x60 /opt/devkitpro/libctru/lib/libctru.a(gfx.o)
                0x000000000013c038                gfxBottomFramebuffers
                0x000000000013c040                gspSharedMemHandle
                0x000000000013c044                bottomFramebufferInfo
                0x000000000013c060                gspEvent
                0x000000000013c064                gfxTopLeftFramebuffers
                0x000000000013c06c                gfxTopRightFramebuffers
                0x000000000013c074                topFramebufferInfo
                0x000000000013c090                gfxThreadID
                0x000000000013c094                gfxSharedMemory
 COMMON         0x000000000013c098     0x103d /opt/devkitpro/libctru/lib/libctru.a(gsp.o)
                0x000000000013c098                gspEventStack
                0x000000000013d098                gspEventThread
                0x000000000013d09c                gspEventCounts
                0x000000000013d0b8                gspEvents
                0x000000000013d0d4                gspRunEvents
 *fill*         0x000000000013d0d5        0x3 
 COMMON         0x000000000013d0d8     0x2022 /opt/devkitpro/libctru/lib/libctru.a(apt.o)
                0x000000000013d0d8                aptEventHandlerThread
                0x000000000013d0dc                aptParameters
                0x000000000013e0e0                aptEventHandlerStack
                0x000000000013f0e0                aptuHandle
                0x000000000013f0e4                aptEvents
                0x000000000013f0f0                aptStatusMutex
                0x000000000013f0f4                aptLockHandle
                0x000000000013f0f8                currentAppId
 *fill*         0x000000000013f0fa        0x2 
 COMMON         0x000000000013f0fc        0x4 /opt/devkitpro/libctru/lib/libctru.a(gx.o)
                0x000000000013f0fc                gxCmdBuf
 COMMON         0x000000000013f100        0x4 /opt/devkitpro/libctru/lib/libctru.a(initSystem.o)
                0x000000000013f100                __system_retAddr
 COMMON         0x000000000013f104        0x8 /opt/devkitpro/libctru/lib/libctru.a(allocateHeaps.o)
                0x000000000013f104                __heapBase
                0x000000000013f108                __linear_heap
 COMMON         0x000000000013f10c        0x8 /opt/devkitpro/libctru/lib/libctru.a(initArgv.o)
                0x000000000013f10c                __system_argv
                0x000000000013f110                __system_argc
 COMMON         0x000000000013f114       0x20 /opt/devkitpro/libctru/lib/libctru.a(hid.o)
                0x000000000013f114                hidMemHandle
                0x000000000013f118                hidHandle
                0x000000000013f11c                hidSharedMem
                0x000000000013f120                hidEvents
 COMMON         0x000000000013f134       0x10 /opt/devkitpro/libctru/lib/libctru.a(irrst.o)
                0x000000000013f134                irrstHandle
                0x000000000013f138                irrstEvent
                0x000000000013f13c                irrstMemHandle
                0x000000000013f140                irrstSharedMem
                0x000000000013f144                . = ALIGN (0x4)
                0x000000000013f144                __bss_end__ = .
                0x000000000013f144                __end__ = ABSOLUTE (.)

/DISCARD/
 *(.group .comment .note)

.stab
 *(.stab)

.stabstr
 *(.stabstr)

.stab.excl
 *(.stab.excl)

.stab.exclstr
 *(.stab.exclstr)

.stab.index
 *(.stab.index)

.stab.indexstr
 *(.stab.indexstr)

.debug
 *(.debug)

.line
 *(.line)

.debug_srcinfo
 *(.debug_srcinfo)

.debug_sfnames
 *(.debug_sfnames)

.debug_aranges  0x0000000000000000      0x468
 *(.debug_aranges)
 .debug_aranges
                0x0000000000000000       0x28 main.o
 .debug_aranges
                0x0000000000000028       0x20 /opt/devkitpro/libctru/lib/libctru.a(os.o)
 .debug_aranges
                0x0000000000000048       0x20 /opt/devkitpro/libctru/lib/libctru.a(console.o)
 .debug_aranges
                0x0000000000000068       0x20 /opt/devkitpro/libctru/lib/libctru.a(gfx.o)
 .debug_aranges
                0x0000000000000088       0x20 /opt/devkitpro/libctru/lib/libctru.a(gsp.o)
 .debug_aranges
                0x00000000000000a8       0x20 /opt/devkitpro/libctru/lib/libctru.a(apt.o)
 .debug_aranges
                0x00000000000000c8       0x20 /opt/devkitpro/libctru/lib/libctru.a(gx.o)
 .debug_aranges
                0x00000000000000e8       0x20 /opt/devkitpro/libctru/lib/libctru.a(initSystem.o)
 .debug_aranges
                0x0000000000000108       0x20 /opt/devkitpro/libctru/lib/libctru.a(allocateHeaps.o)
 .debug_aranges
                0x0000000000000128       0x20 /opt/devkitpro/libctru/lib/libctru.a(initArgv.o)
 .debug_aranges
                0x0000000000000148       0x20 /opt/devkitpro/libctru/lib/libctru.a(svc.o)
 .debug_aranges
                0x0000000000000168       0x20 /opt/devkitpro/libctru/lib/libctru.a(stack_adjust.o)
 .debug_aranges
                0x0000000000000188       0x20 /opt/devkitpro/libctru/lib/libctru.a(vram.o)
 .debug_aranges
                0x00000000000001a8       0x20 /opt/devkitpro/libctru/lib/libctru.a(linear.o)
 .debug_aranges
                0x00000000000001c8       0x20 /opt/devkitpro/libctru/lib/libctru.a(mem_pool.o)
 .debug_aranges
                0x00000000000001e8       0x20 /opt/devkitpro/libctru/lib/libctru.a(srv.o)
 .debug_aranges
                0x0000000000000208       0x20 /opt/devkitpro/libctru/lib/libctru.a(rbtree_init.o)
 .debug_aranges
                0x0000000000000228       0x20 /opt/devkitpro/libctru/lib/libctru.a(rbtree_insert.o)
 .debug_aranges
                0x0000000000000248       0x20 /opt/devkitpro/libctru/lib/libctru.a(rbtree_rotate.o)
 .debug_aranges
                0x0000000000000268       0x20 /opt/devkitpro/libctru/lib/libctru.a(rbtree_remove.o)
 .debug_aranges
                0x0000000000000288       0x20 /opt/devkitpro/libctru/lib/libctru.a(rbtree_find.o)
 .debug_aranges
                0x00000000000002a8       0x20 /opt/devkitpro/libctru/lib/libctru.a(appInit.o)
 .debug_aranges
                0x00000000000002c8       0x20 /opt/devkitpro/libctru/lib/libctru.a(appExit.o)
 .debug_aranges
                0x00000000000002e8       0x20 /opt/devkitpro/libctru/lib/libctru.a(ctru_exit.o)
 .debug_aranges
                0x0000000000000308       0x20 /opt/devkitpro/libctru/lib/libctru.a(sdmc_dev.o)
 .debug_aranges
                0x0000000000000328       0x20 /opt/devkitpro/libctru/lib/libctru.a(hid.o)
 .debug_aranges
                0x0000000000000348       0x20 /opt/devkitpro/libctru/lib/libctru.a(fs.o)
 .debug_aranges
                0x0000000000000368       0x20 /opt/devkitpro/libctru/lib/libctru.a(rbtree_iterator.o)
 .debug_aranges
                0x0000000000000388       0x20 /opt/devkitpro/libctru/lib/libctru.a(utf8_to_utf16.o)
 .debug_aranges
                0x00000000000003a8       0x20 /opt/devkitpro/libctru/lib/libctru.a(decode_utf8.o)
 .debug_aranges
                0x00000000000003c8       0x20 /opt/devkitpro/libctru/lib/libctru.a(utf16_to_utf8.o)
 .debug_aranges
                0x00000000000003e8       0x20 /opt/devkitpro/libctru/lib/libctru.a(irrst.o)
 .debug_aranges
                0x0000000000000408       0x20 /opt/devkitpro/libctru/lib/libctru.a(encode_utf16.o)
 .debug_aranges
                0x0000000000000428       0x20 /opt/devkitpro/libctru/lib/libctru.a(encode_utf8.o)
 .debug_aranges
                0x0000000000000448       0x20 /opt/devkitpro/libctru/lib/libctru.a(decode_utf16.o)

.debug_pubnames
 *(.debug_pubnames)

.debug_info     0x0000000000000000    0x1371c
 *(.debug_info)
 .debug_info    0x0000000000000000      0x6f6 main.o
 .debug_info    0x00000000000006f6      0xc28 /opt/devkitpro/libctru/lib/libctru.a(os.o)
 .debug_info    0x000000000000131e     0x1cc9 /opt/devkitpro/libctru/lib/libctru.a(console.o)
 .debug_info    0x0000000000002fe7      0xd7a /opt/devkitpro/libctru/lib/libctru.a(gfx.o)
 .debug_info    0x0000000000003d61     0x10dd /opt/devkitpro/libctru/lib/libctru.a(gsp.o)
 .debug_info    0x0000000000004e3e     0x35d8 /opt/devkitpro/libctru/lib/libctru.a(apt.o)
 .debug_info    0x0000000000008416      0x4e7 /opt/devkitpro/libctru/lib/libctru.a(gx.o)
 .debug_info    0x00000000000088fd      0xacb /opt/devkitpro/libctru/lib/libctru.a(initSystem.o)
 .debug_info    0x00000000000093c8      0x269 /opt/devkitpro/libctru/lib/libctru.a(allocateHeaps.o)
 .debug_info    0x0000000000009631      0x165 /opt/devkitpro/libctru/lib/libctru.a(initArgv.o)
 .debug_info    0x0000000000009796       0x85 /opt/devkitpro/libctru/lib/libctru.a(svc.o)
 .debug_info    0x000000000000981b       0x95 /opt/devkitpro/libctru/lib/libctru.a(stack_adjust.o)
 .debug_info    0x00000000000098b0      0x95e /opt/devkitpro/libctru/lib/libctru.a(vram.o)
 .debug_info    0x000000000000a20e      0x974 /opt/devkitpro/libctru/lib/libctru.a(linear.o)
 .debug_info    0x000000000000ab82      0x8ed /opt/devkitpro/libctru/lib/libctru.a(mem_pool.o)
 .debug_info    0x000000000000b46f      0x828 /opt/devkitpro/libctru/lib/libctru.a(srv.o)
 .debug_info    0x000000000000bc97      0x178 /opt/devkitpro/libctru/lib/libctru.a(rbtree_init.o)
 .debug_info    0x000000000000be0f      0x60c /opt/devkitpro/libctru/lib/libctru.a(rbtree_insert.o)
 .debug_info    0x000000000000c41b      0x2ec /opt/devkitpro/libctru/lib/libctru.a(rbtree_rotate.o)
 .debug_info    0x000000000000c707      0x838 /opt/devkitpro/libctru/lib/libctru.a(rbtree_remove.o)
 .debug_info    0x000000000000cf3f      0x1c9 /opt/devkitpro/libctru/lib/libctru.a(rbtree_find.o)
 .debug_info    0x000000000000d108      0x15c /opt/devkitpro/libctru/lib/libctru.a(appInit.o)
 .debug_info    0x000000000000d264      0x11b /opt/devkitpro/libctru/lib/libctru.a(appExit.o)
 .debug_info    0x000000000000d37f      0x26e /opt/devkitpro/libctru/lib/libctru.a(ctru_exit.o)
 .debug_info    0x000000000000d5ed     0x29f7 /opt/devkitpro/libctru/lib/libctru.a(sdmc_dev.o)
 .debug_info    0x000000000000ffe4      0xe22 /opt/devkitpro/libctru/lib/libctru.a(hid.o)
 .debug_info    0x0000000000010e06     0x1706 /opt/devkitpro/libctru/lib/libctru.a(fs.o)
 .debug_info    0x000000000001250c      0x2a3 /opt/devkitpro/libctru/lib/libctru.a(rbtree_iterator.o)
 .debug_info    0x00000000000127af      0x1d9 /opt/devkitpro/libctru/lib/libctru.a(utf8_to_utf16.o)
 .debug_info    0x0000000000012988      0x13c /opt/devkitpro/libctru/lib/libctru.a(decode_utf8.o)
 .debug_info    0x0000000000012ac4      0x1d9 /opt/devkitpro/libctru/lib/libctru.a(utf16_to_utf8.o)
 .debug_info    0x0000000000012c9d      0x779 /opt/devkitpro/libctru/lib/libctru.a(irrst.o)
 .debug_info    0x0000000000013416       0xf5 /opt/devkitpro/libctru/lib/libctru.a(encode_utf16.o)
 .debug_info    0x000000000001350b       0xf5 /opt/devkitpro/libctru/lib/libctru.a(encode_utf8.o)
 .debug_info    0x0000000000013600      0x11c /opt/devkitpro/libctru/lib/libctru.a(decode_utf16.o)

.debug_abbrev   0x0000000000000000     0x4022
 *(.debug_abbrev)
 .debug_abbrev  0x0000000000000000      0x218 main.o
 .debug_abbrev  0x0000000000000218      0x2cd /opt/devkitpro/libctru/lib/libctru.a(os.o)
 .debug_abbrev  0x00000000000004e5      0x461 /opt/devkitpro/libctru/lib/libctru.a(console.o)
 .debug_abbrev  0x0000000000000946      0x320 /opt/devkitpro/libctru/lib/libctru.a(gfx.o)
 .debug_abbrev  0x0000000000000c66      0x344 /opt/devkitpro/libctru/lib/libctru.a(gsp.o)
 .debug_abbrev  0x0000000000000faa      0x4aa /opt/devkitpro/libctru/lib/libctru.a(apt.o)
 .debug_abbrev  0x0000000000001454       0xf9 /opt/devkitpro/libctru/lib/libctru.a(gx.o)
 .debug_abbrev  0x000000000000154d      0x1f4 /opt/devkitpro/libctru/lib/libctru.a(initSystem.o)
 .debug_abbrev  0x0000000000001741       0xea /opt/devkitpro/libctru/lib/libctru.a(allocateHeaps.o)
 .debug_abbrev  0x000000000000182b       0xdb /opt/devkitpro/libctru/lib/libctru.a(initArgv.o)
 .debug_abbrev  0x0000000000001906       0x14 /opt/devkitpro/libctru/lib/libctru.a(svc.o)
 .debug_abbrev  0x000000000000191a       0x14 /opt/devkitpro/libctru/lib/libctru.a(stack_adjust.o)
 .debug_abbrev  0x000000000000192e      0x2fe /opt/devkitpro/libctru/lib/libctru.a(vram.o)
 .debug_abbrev  0x0000000000001c2c      0x30f /opt/devkitpro/libctru/lib/libctru.a(linear.o)
 .debug_abbrev  0x0000000000001f3b      0x286 /opt/devkitpro/libctru/lib/libctru.a(mem_pool.o)
 .debug_abbrev  0x00000000000021c1      0x26d /opt/devkitpro/libctru/lib/libctru.a(srv.o)
 .debug_abbrev  0x000000000000242e       0xb0 /opt/devkitpro/libctru/lib/libctru.a(rbtree_init.o)
 .debug_abbrev  0x00000000000024de      0x21d /opt/devkitpro/libctru/lib/libctru.a(rbtree_insert.o)
 .debug_abbrev  0x00000000000026fb      0x170 /opt/devkitpro/libctru/lib/libctru.a(rbtree_rotate.o)
 .debug_abbrev  0x000000000000286b      0x205 /opt/devkitpro/libctru/lib/libctru.a(rbtree_remove.o)
 .debug_abbrev  0x0000000000002a70       0xec /opt/devkitpro/libctru/lib/libctru.a(rbtree_find.o)
 .debug_abbrev  0x0000000000002b5c       0xdc /opt/devkitpro/libctru/lib/libctru.a(appInit.o)
 .debug_abbrev  0x0000000000002c38       0xad /opt/devkitpro/libctru/lib/libctru.a(appExit.o)
 .debug_abbrev  0x0000000000002ce5      0x116 /opt/devkitpro/libctru/lib/libctru.a(ctru_exit.o)
 .debug_abbrev  0x0000000000002dfb      0x3fa /opt/devkitpro/libctru/lib/libctru.a(sdmc_dev.o)
 .debug_abbrev  0x00000000000031f5      0x35f /opt/devkitpro/libctru/lib/libctru.a(hid.o)
 .debug_abbrev  0x0000000000003554      0x2d3 /opt/devkitpro/libctru/lib/libctru.a(fs.o)
 .debug_abbrev  0x0000000000003827      0x163 /opt/devkitpro/libctru/lib/libctru.a(rbtree_iterator.o)
 .debug_abbrev  0x000000000000398a      0x102 /opt/devkitpro/libctru/lib/libctru.a(utf8_to_utf16.o)
 .debug_abbrev  0x0000000000003a8c       0x7f /opt/devkitpro/libctru/lib/libctru.a(decode_utf8.o)
 .debug_abbrev  0x0000000000003b0b      0x102 /opt/devkitpro/libctru/lib/libctru.a(utf16_to_utf8.o)
 .debug_abbrev  0x0000000000003c0d      0x2b5 /opt/devkitpro/libctru/lib/libctru.a(irrst.o)
 .debug_abbrev  0x0000000000003ec2       0x69 /opt/devkitpro/libctru/lib/libctru.a(encode_utf16.o)
 .debug_abbrev  0x0000000000003f2b       0x69 /opt/devkitpro/libctru/lib/libctru.a(encode_utf8.o)
 .debug_abbrev  0x0000000000003f94       0x8e /opt/devkitpro/libctru/lib/libctru.a(decode_utf16.o)

.debug_line     0x0000000000000000     0x5634
 *(.debug_line)
 .debug_line    0x0000000000000000      0x1e6 main.o
 .debug_line    0x00000000000001e6      0x25d /opt/devkitpro/libctru/lib/libctru.a(os.o)
 .debug_line    0x0000000000000443      0x64a /opt/devkitpro/libctru/lib/libctru.a(console.o)
 .debug_line    0x0000000000000a8d      0x2de /opt/devkitpro/libctru/lib/libctru.a(gfx.o)
 .debug_line    0x0000000000000d6b      0x3b2 /opt/devkitpro/libctru/lib/libctru.a(gsp.o)
 .debug_line    0x000000000000111d      0x809 /opt/devkitpro/libctru/lib/libctru.a(apt.o)
 .debug_line    0x0000000000001926      0x214 /opt/devkitpro/libctru/lib/libctru.a(gx.o)
 .debug_line    0x0000000000001b3a      0x13b /opt/devkitpro/libctru/lib/libctru.a(initSystem.o)
 .debug_line    0x0000000000001c75      0x152 /opt/devkitpro/libctru/lib/libctru.a(allocateHeaps.o)
 .debug_line    0x0000000000001dc7      0x17f /opt/devkitpro/libctru/lib/libctru.a(initArgv.o)
 .debug_line    0x0000000000001f46      0x150 /opt/devkitpro/libctru/lib/libctru.a(svc.o)
 .debug_line    0x0000000000002096       0x8a /opt/devkitpro/libctru/lib/libctru.a(stack_adjust.o)
 .debug_line    0x0000000000002120      0x269 /opt/devkitpro/libctru/lib/libctru.a(vram.o)
 .debug_line    0x0000000000002389      0x26c /opt/devkitpro/libctru/lib/libctru.a(linear.o)
 .debug_line    0x00000000000025f5      0x2fc /opt/devkitpro/libctru/lib/libctru.a(mem_pool.o)
 .debug_line    0x00000000000028f1      0x275 /opt/devkitpro/libctru/lib/libctru.a(srv.o)
 .debug_line    0x0000000000002b66      0x18a /opt/devkitpro/libctru/lib/libctru.a(rbtree_init.o)
 .debug_line    0x0000000000002cf0      0x254 /opt/devkitpro/libctru/lib/libctru.a(rbtree_insert.o)
 .debug_line    0x0000000000002f44      0x1e5 /opt/devkitpro/libctru/lib/libctru.a(rbtree_rotate.o)
 .debug_line    0x0000000000003129      0x2f5 /opt/devkitpro/libctru/lib/libctru.a(rbtree_remove.o)
 .debug_line    0x000000000000341e      0x19c /opt/devkitpro/libctru/lib/libctru.a(rbtree_find.o)
 .debug_line    0x00000000000035ba      0x19c /opt/devkitpro/libctru/lib/libctru.a(appInit.o)
 .debug_line    0x0000000000003756      0x19c /opt/devkitpro/libctru/lib/libctru.a(appExit.o)
 .debug_line    0x00000000000038f2      0x148 /opt/devkitpro/libctru/lib/libctru.a(ctru_exit.o)
 .debug_line    0x0000000000003a3a      0x5d3 /opt/devkitpro/libctru/lib/libctru.a(sdmc_dev.o)
 .debug_line    0x000000000000400d      0x2dc /opt/devkitpro/libctru/lib/libctru.a(hid.o)
 .debug_line    0x00000000000042e9      0x5fd /opt/devkitpro/libctru/lib/libctru.a(fs.o)
 .debug_line    0x00000000000048e6      0x17f /opt/devkitpro/libctru/lib/libctru.a(rbtree_iterator.o)
 .debug_line    0x0000000000004a65      0x1ef /opt/devkitpro/libctru/lib/libctru.a(utf8_to_utf16.o)
 .debug_line    0x0000000000004c54      0x17a /opt/devkitpro/libctru/lib/libctru.a(decode_utf8.o)
 .debug_line    0x0000000000004dce      0x1f9 /opt/devkitpro/libctru/lib/libctru.a(utf16_to_utf8.o)
 .debug_line    0x0000000000004fc7      0x24b /opt/devkitpro/libctru/lib/libctru.a(irrst.o)
 .debug_line    0x0000000000005212      0x157 /opt/devkitpro/libctru/lib/libctru.a(encode_utf16.o)
 .debug_line    0x0000000000005369      0x17e /opt/devkitpro/libctru/lib/libctru.a(encode_utf8.o)
 .debug_line    0x00000000000054e7      0x14d /opt/devkitpro/libctru/lib/libctru.a(decode_utf16.o)

.debug_frame    0x0000000000000000     0x20c4
 *(.debug_frame)
 .debug_frame   0x0000000000000000       0x70 main.o
 .debug_frame   0x0000000000000070       0xd4 /opt/devkitpro/libctru/lib/libctru.a(os.o)
 .debug_frame   0x0000000000000144      0x1fc /opt/devkitpro/libctru/lib/libctru.a(console.o)
 .debug_frame   0x0000000000000340      0x16c /opt/devkitpro/libctru/lib/libctru.a(gfx.o)
 .debug_frame   0x00000000000004ac      0x27c /opt/devkitpro/libctru/lib/libctru.a(gsp.o)
 .debug_frame   0x0000000000000728      0x684 /opt/devkitpro/libctru/lib/libctru.a(apt.o)
 .debug_frame   0x0000000000000dac       0xf0 /opt/devkitpro/libctru/lib/libctru.a(gx.o)
 .debug_frame   0x0000000000000e9c       0x2c /opt/devkitpro/libctru/lib/libctru.a(initSystem.o)
 .debug_frame   0x0000000000000ec8       0x34 /opt/devkitpro/libctru/lib/libctru.a(allocateHeaps.o)
 .debug_frame   0x0000000000000efc       0x2c /opt/devkitpro/libctru/lib/libctru.a(initArgv.o)
 .debug_frame   0x0000000000000f28       0xb4 /opt/devkitpro/libctru/lib/libctru.a(vram.o)
 .debug_frame   0x0000000000000fdc       0xc0 /opt/devkitpro/libctru/lib/libctru.a(linear.o)
 .debug_frame   0x000000000000109c       0xa8 /opt/devkitpro/libctru/lib/libctru.a(mem_pool.o)
 .debug_frame   0x0000000000001144      0x158 /opt/devkitpro/libctru/lib/libctru.a(srv.o)
 .debug_frame   0x000000000000129c       0x20 /opt/devkitpro/libctru/lib/libctru.a(rbtree_init.o)
 .debug_frame   0x00000000000012bc       0x54 /opt/devkitpro/libctru/lib/libctru.a(rbtree_insert.o)
 .debug_frame   0x0000000000001310       0x2c /opt/devkitpro/libctru/lib/libctru.a(rbtree_rotate.o)
 .debug_frame   0x000000000000133c       0x38 /opt/devkitpro/libctru/lib/libctru.a(rbtree_remove.o)
 .debug_frame   0x0000000000001374       0x30 /opt/devkitpro/libctru/lib/libctru.a(rbtree_find.o)
 .debug_frame   0x00000000000013a4       0x2c /opt/devkitpro/libctru/lib/libctru.a(appInit.o)
 .debug_frame   0x00000000000013d0       0x2c /opt/devkitpro/libctru/lib/libctru.a(appExit.o)
 .debug_frame   0x00000000000013fc       0x28 /opt/devkitpro/libctru/lib/libctru.a(ctru_exit.o)
 .debug_frame   0x0000000000001424      0x3c4 /opt/devkitpro/libctru/lib/libctru.a(sdmc_dev.o)
 .debug_frame   0x00000000000017e8      0x1f8 /opt/devkitpro/libctru/lib/libctru.a(hid.o)
 .debug_frame   0x00000000000019e0      0x484 /opt/devkitpro/libctru/lib/libctru.a(fs.o)
 .debug_frame   0x0000000000001e64       0x30 /opt/devkitpro/libctru/lib/libctru.a(rbtree_iterator.o)
 .debug_frame   0x0000000000001e94       0x3c /opt/devkitpro/libctru/lib/libctru.a(utf8_to_utf16.o)
 .debug_frame   0x0000000000001ed0       0x30 /opt/devkitpro/libctru/lib/libctru.a(decode_utf8.o)
 .debug_frame   0x0000000000001f00       0x3c /opt/devkitpro/libctru/lib/libctru.a(utf16_to_utf8.o)
 .debug_frame   0x0000000000001f3c      0x120 /opt/devkitpro/libctru/lib/libctru.a(irrst.o)
 .debug_frame   0x000000000000205c       0x20 /opt/devkitpro/libctru/lib/libctru.a(encode_utf16.o)
 .debug_frame   0x000000000000207c       0x20 /opt/devkitpro/libctru/lib/libctru.a(encode_utf8.o)
 .debug_frame   0x000000000000209c       0x28 /opt/devkitpro/libctru/lib/libctru.a(decode_utf16.o)

.debug_str      0x0000000000000000     0x4148
 *(.debug_str)
 .debug_str     0x0000000000000000      0x379 main.o
                                        0x3e3 (size before relaxing)
 .debug_str     0x0000000000000379      0x55f /opt/devkitpro/libctru/lib/libctru.a(os.o)
                                        0x6b0 (size before relaxing)
 .debug_str     0x00000000000008d8      0x669 /opt/devkitpro/libctru/lib/libctru.a(console.o)
                                        0xd16 (size before relaxing)
 .debug_str     0x0000000000000f41      0x403 /opt/devkitpro/libctru/lib/libctru.a(gfx.o)
                                        0x760 (size before relaxing)
 .debug_str     0x0000000000001344      0x37c /opt/devkitpro/libctru/lib/libctru.a(gsp.o)
                                        0x735 (size before relaxing)
 .debug_str     0x00000000000016c0      0xb44 /opt/devkitpro/libctru/lib/libctru.a(apt.o)
                                        0xf38 (size before relaxing)
 .debug_str     0x0000000000002204      0x126 /opt/devkitpro/libctru/lib/libctru.a(gx.o)
                                        0x2d0 (size before relaxing)
 .debug_str     0x000000000000232a      0x18d /opt/devkitpro/libctru/lib/libctru.a(initSystem.o)
                                        0x6d2 (size before relaxing)
 .debug_str     0x00000000000024b7      0x173 /opt/devkitpro/libctru/lib/libctru.a(allocateHeaps.o)
                                        0x316 (size before relaxing)
 .debug_str     0x000000000000262a       0x81 /opt/devkitpro/libctru/lib/libctru.a(initArgv.o)
                                        0x1d9 (size before relaxing)
 .debug_str     0x00000000000026ab      0x475 /opt/devkitpro/libctru/lib/libctru.a(vram.o)
                                        0x57f (size before relaxing)
 .debug_str     0x0000000000002b20       0x9d /opt/devkitpro/libctru/lib/libctru.a(linear.o)
                                        0x5b0 (size before relaxing)
 .debug_str     0x0000000000002bbd       0x8d /opt/devkitpro/libctru/lib/libctru.a(mem_pool.o)
                                        0x444 (size before relaxing)
 .debug_str     0x0000000000002c4a      0x17a /opt/devkitpro/libctru/lib/libctru.a(srv.o)
                                        0x36c (size before relaxing)
 .debug_str     0x0000000000002dc4       0x47 /opt/devkitpro/libctru/lib/libctru.a(rbtree_init.o)
                                        0x1f6 (size before relaxing)
 .debug_str     0x0000000000002e0b       0xf5 /opt/devkitpro/libctru/lib/libctru.a(rbtree_insert.o)
                                        0x2b8 (size before relaxing)
 .debug_str     0x0000000000002f00       0x49 /opt/devkitpro/libctru/lib/libctru.a(rbtree_rotate.o)
                                        0x24d (size before relaxing)
 .debug_str     0x0000000000002f49       0x7e /opt/devkitpro/libctru/lib/libctru.a(rbtree_remove.o)
                                        0x2d6 (size before relaxing)
 .debug_str     0x0000000000002fc7       0x47 /opt/devkitpro/libctru/lib/libctru.a(rbtree_find.o)
                                        0x200 (size before relaxing)
 .debug_str     0x000000000000300e       0x60 /opt/devkitpro/libctru/lib/libctru.a(appInit.o)
                                        0x1b3 (size before relaxing)
 .debug_str     0x000000000000306e       0x60 /opt/devkitpro/libctru/lib/libctru.a(appExit.o)
                                        0x19f (size before relaxing)
 .debug_str     0x00000000000030ce       0x5e /opt/devkitpro/libctru/lib/libctru.a(ctru_exit.o)
                                        0x31d (size before relaxing)
 .debug_str     0x000000000000312c      0x6ab /opt/devkitpro/libctru/lib/libctru.a(sdmc_dev.o)
                                        0xee4 (size before relaxing)
 .debug_str     0x00000000000037d7      0x44b /opt/devkitpro/libctru/lib/libctru.a(hid.o)
                                        0x739 (size before relaxing)
 .debug_str     0x0000000000003c22      0x1d0 /opt/devkitpro/libctru/lib/libctru.a(fs.o)
                                        0x6bb (size before relaxing)
 .debug_str     0x0000000000003df2       0x67 /opt/devkitpro/libctru/lib/libctru.a(rbtree_iterator.o)
                                        0x200 (size before relaxing)
 .debug_str     0x0000000000003e59       0x5b /opt/devkitpro/libctru/lib/libctru.a(utf8_to_utf16.o)
                                        0x1ed (size before relaxing)
 .debug_str     0x0000000000003eb4       0x5c /opt/devkitpro/libctru/lib/libctru.a(decode_utf8.o)
                                        0x1ba (size before relaxing)
 .debug_str     0x0000000000003f10       0x5f /opt/devkitpro/libctru/lib/libctru.a(utf16_to_utf8.o)
                                        0x1ed (size before relaxing)
 .debug_str     0x0000000000003f6f      0x10b /opt/devkitpro/libctru/lib/libctru.a(irrst.o)
                                        0x456 (size before relaxing)
 .debug_str     0x000000000000407a       0x45 /opt/devkitpro/libctru/lib/libctru.a(encode_utf16.o)
                                        0x1a6 (size before relaxing)
 .debug_str     0x00000000000040bf       0x44 /opt/devkitpro/libctru/lib/libctru.a(encode_utf8.o)
                                        0x1a2 (size before relaxing)
 .debug_str     0x0000000000004103       0x45 /opt/devkitpro/libctru/lib/libctru.a(decode_utf16.o)
                                        0x1b2 (size before relaxing)

.debug_loc      0x0000000000000000     0x9794
 *(.debug_loc)
 .debug_loc     0x0000000000000000      0x1c9 main.o
 .debug_loc     0x00000000000001c9      0x23d /opt/devkitpro/libctru/lib/libctru.a(os.o)
 .debug_loc     0x0000000000000406      0xeac /opt/devkitpro/libctru/lib/libctru.a(console.o)
 .debug_loc     0x00000000000012b2      0x464 /opt/devkitpro/libctru/lib/libctru.a(gfx.o)
 .debug_loc     0x0000000000001716      0xd25 /opt/devkitpro/libctru/lib/libctru.a(gsp.o)
 .debug_loc     0x000000000000243b     0x1846 /opt/devkitpro/libctru/lib/libctru.a(apt.o)
 .debug_loc     0x0000000000003c81      0x38a /opt/devkitpro/libctru/lib/libctru.a(gx.o)
 .debug_loc     0x000000000000400b       0x21 /opt/devkitpro/libctru/lib/libctru.a(initSystem.o)
 .debug_loc     0x000000000000402c       0xfb /opt/devkitpro/libctru/lib/libctru.a(initArgv.o)
 .debug_loc     0x0000000000004127      0x304 /opt/devkitpro/libctru/lib/libctru.a(vram.o)
 .debug_loc     0x000000000000442b      0x309 /opt/devkitpro/libctru/lib/libctru.a(linear.o)
 .debug_loc     0x0000000000004734      0x95b /opt/devkitpro/libctru/lib/libctru.a(mem_pool.o)
 .debug_loc     0x000000000000508f      0x41e /opt/devkitpro/libctru/lib/libctru.a(srv.o)
 .debug_loc     0x00000000000054ad      0x382 /opt/devkitpro/libctru/lib/libctru.a(rbtree_insert.o)
 .debug_loc     0x000000000000582f       0x8e /opt/devkitpro/libctru/lib/libctru.a(rbtree_rotate.o)
 .debug_loc     0x00000000000058bd      0x506 /opt/devkitpro/libctru/lib/libctru.a(rbtree_remove.o)
 .debug_loc     0x0000000000005dc3      0x10d /opt/devkitpro/libctru/lib/libctru.a(rbtree_find.o)
 .debug_loc     0x0000000000005ed0       0x21 /opt/devkitpro/libctru/lib/libctru.a(ctru_exit.o)
 .debug_loc     0x0000000000005ef1     0x124d /opt/devkitpro/libctru/lib/libctru.a(sdmc_dev.o)
 .debug_loc     0x000000000000713e      0x765 /opt/devkitpro/libctru/lib/libctru.a(hid.o)
 .debug_loc     0x00000000000078a3     0x110f /opt/devkitpro/libctru/lib/libctru.a(fs.o)
 .debug_loc     0x00000000000089b2      0x2b2 /opt/devkitpro/libctru/lib/libctru.a(rbtree_iterator.o)
 .debug_loc     0x0000000000008c64       0xf3 /opt/devkitpro/libctru/lib/libctru.a(utf8_to_utf16.o)
 .debug_loc     0x0000000000008d57      0x232 /opt/devkitpro/libctru/lib/libctru.a(decode_utf8.o)
 .debug_loc     0x0000000000008f89      0x125 /opt/devkitpro/libctru/lib/libctru.a(utf16_to_utf8.o)
 .debug_loc     0x00000000000090ae      0x39c /opt/devkitpro/libctru/lib/libctru.a(irrst.o)
 .debug_loc     0x000000000000944a       0xdc /opt/devkitpro/libctru/lib/libctru.a(encode_utf16.o)
 .debug_loc     0x0000000000009526      0x1aa /opt/devkitpro/libctru/lib/libctru.a(encode_utf8.o)
 .debug_loc     0x00000000000096d0       0xc4 /opt/devkitpro/libctru/lib/libctru.a(decode_utf16.o)

.debug_macinfo
 *(.debug_macinfo)
LOAD /opt/devkitpro/devkitARM/lib/gcc/arm-none-eabi/4.9.2/../../../../arm-none-eabi/lib/armv6k/fpu/3dsx_crt0.o
LOAD /opt/devkitpro/devkitARM/lib/gcc/arm-none-eabi/4.9.2/armv6k/fpu/crti.o
LOAD /opt/devkitpro/devkitARM/lib/gcc/arm-none-eabi/4.9.2/armv6k/fpu/crtbegin.o
LOAD main.o
LOAD /opt/devkitpro/libctru/lib/libctru.a
LOAD /opt/devkitpro/devkitARM/lib/gcc/arm-none-eabi/4.9.2/../../../../arm-none-eabi/lib/armv6k/fpu/libm.a
START GROUP
LOAD /opt/devkitpro/devkitARM/lib/gcc/arm-none-eabi/4.9.2/armv6k/fpu/libgcc.a
LOAD /opt/devkitpro/devkitARM/lib/gcc/arm-none-eabi/4.9.2/../../../../arm-none-eabi/lib/armv6k/fpu/libg.a
LOAD /opt/devkitpro/devkitARM/lib/gcc/arm-none-eabi/4.9.2/../../../../arm-none-eabi/lib/armv6k/fpu/libc.a
LOAD /opt/devkitpro/devkitARM/lib/gcc/arm-none-eabi/4.9.2/../../../../arm-none-eabi/lib/armv6k/fpu/libsysbase.a
END GROUP
LOAD /opt/devkitpro/devkitARM/lib/gcc/arm-none-eabi/4.9.2/armv6k/fpu/crtend.o
LOAD /opt/devkitpro/devkitARM/lib/gcc/arm-none-eabi/4.9.2/armv6k/fpu/crtn.o
OUTPUT(/home/ruairidh/GitHub/3dsfetch/3dsfetch.elf elf32-littlearm)

.ARM.attributes
                0x0000000000000000       0x32
 .ARM.attributes
                0x0000000000000000       0x1e /opt/devkitpro/devkitARM/lib/gcc/arm-none-eabi/4.9.2/../../../../arm-none-eabi/lib/armv6k/fpu/3dsx_crt0.o
 .ARM.attributes
                0x000000000000001e       0x1c /opt/devkitpro/devkitARM/lib/gcc/arm-none-eabi/4.9.2/armv6k/fpu/crti.o
 .ARM.attributes
                0x000000000000003a       0x32 /opt/devkitpro/devkitARM/lib/gcc/arm-none-eabi/4.9.2/armv6k/fpu/crtbegin.o
 .ARM.attributes
                0x000000000000006c       0x2e main.o
 .ARM.attributes
                0x000000000000009a       0x2e /opt/devkitpro/libctru/lib/libctru.a(os.o)
 .ARM.attributes
                0x00000000000000c8       0x2e /opt/devkitpro/libctru/lib/libctru.a(console.o)
 .ARM.attributes
                0x00000000000000f6       0x2e /opt/devkitpro/libctru/lib/libctru.a(gfx.o)
 .ARM.attributes
                0x0000000000000124       0x2e /opt/devkitpro/libctru/lib/libctru.a(gsp.o)
 .ARM.attributes
                0x0000000000000152       0x2e /opt/devkitpro/libctru/lib/libctru.a(apt.o)
 .ARM.attributes
                0x0000000000000180       0x2e /opt/devkitpro/libctru/lib/libctru.a(gx.o)
 .ARM.attributes
                0x00000000000001ae       0x2e /opt/devkitpro/libctru/lib/libctru.a(initSystem.o)
 .ARM.attributes
                0x00000000000001dc       0x2e /opt/devkitpro/libctru/lib/libctru.a(allocateHeaps.o)
 .ARM.attributes
                0x000000000000020a       0x2e /opt/devkitpro/libctru/lib/libctru.a(initArgv.o)
 .ARM.attributes
                0x0000000000000238       0x1a /opt/devkitpro/libctru/lib/libctru.a(svc.o)
 .ARM.attributes
                0x0000000000000252       0x1a /opt/devkitpro/libctru/lib/libctru.a(stack_adjust.o)
 .ARM.attributes
                0x000000000000026c       0x14 /opt/devkitpro/libctru/lib/libctru.a(default_font.bin.o)
 .ARM.attributes
                0x0000000000000280       0x2e /opt/devkitpro/libctru/lib/libctru.a(vram.o)
 .ARM.attributes
                0x00000000000002ae       0x2e /opt/devkitpro/libctru/lib/libctru.a(linear.o)
 .ARM.attributes
                0x00000000000002dc       0x2e /opt/devkitpro/libctru/lib/libctru.a(mem_pool.o)
 .ARM.attributes
                0x000000000000030a       0x2e /opt/devkitpro/libctru/lib/libctru.a(srv.o)
 .ARM.attributes
                0x0000000000000338       0x2e /opt/devkitpro/libctru/lib/libctru.a(rbtree_init.o)
 .ARM.attributes
                0x0000000000000366       0x2e /opt/devkitpro/libctru/lib/libctru.a(rbtree_insert.o)
 .ARM.attributes
                0x0000000000000394       0x2e /opt/devkitpro/libctru/lib/libctru.a(rbtree_rotate.o)
 .ARM.attributes
                0x00000000000003c2       0x2e /opt/devkitpro/libctru/lib/libctru.a(rbtree_remove.o)
 .ARM.attributes
                0x00000000000003f0       0x2e /opt/devkitpro/libctru/lib/libctru.a(rbtree_find.o)
 .ARM.attributes
                0x000000000000041e       0x2e /opt/devkitpro/libctru/lib/libctru.a(appInit.o)
 .ARM.attributes
                0x000000000000044c       0x2e /opt/devkitpro/libctru/lib/libctru.a(appExit.o)
 .ARM.attributes
                0x000000000000047a       0x2e /opt/devkitpro/libctru/lib/libctru.a(ctru_exit.o)
 .ARM.attributes
                0x00000000000004a8       0x2e /opt/devkitpro/libctru/lib/libctru.a(sdmc_dev.o)
 .ARM.attributes
                0x00000000000004d6       0x2e /opt/devkitpro/libctru/lib/libctru.a(hid.o)
 .ARM.attributes
                0x0000000000000504       0x2e /opt/devkitpro/libctru/lib/libctru.a(fs.o)
 .ARM.attributes
                0x0000000000000532       0x2e /opt/devkitpro/libctru/lib/libctru.a(rbtree_iterator.o)
 .ARM.attributes
                0x0000000000000560       0x2e /opt/devkitpro/libctru/lib/libctru.a(utf8_to_utf16.o)
 .ARM.attributes
                0x000000000000058e       0x2e /opt/devkitpro/libctru/lib/libctru.a(decode_utf8.o)
 .ARM.attributes
                0x00000000000005bc       0x2e /opt/devkitpro/libctru/lib/libctru.a(utf16_to_utf8.o)
 .ARM.attributes
                0x00000000000005ea       0x2e /opt/devkitpro/libctru/lib/libctru.a(irrst.o)
 .ARM.attributes
                0x0000000000000618       0x2e /opt/devkitpro/libctru/lib/libctru.a(encode_utf16.o)
 .ARM.attributes
                0x0000000000000646       0x2e /opt/devkitpro/libctru/lib/libctru.a(encode_utf8.o)
 .ARM.attributes
                0x0000000000000674       0x2e /opt/devkitpro/libctru/lib/libctru.a(decode_utf16.o)
 .ARM.attributes
                0x00000000000006a2       0x1c /opt/devkitpro/devkitARM/lib/gcc/arm-none-eabi/4.9.2/armv6k/fpu/libgcc.a(_divsi3.o)
 .ARM.attributes
                0x00000000000006be       0x1c /opt/devkitpro/devkitARM/lib/gcc/arm-none-eabi/4.9.2/armv6k/fpu/libgcc.a(_dvmd_tls.o)
 .ARM.attributes
                0x00000000000006da       0x32 /opt/devkitpro/devkitARM/lib/gcc/arm-none-eabi/4.9.2/../../../../arm-none-eabi/lib/armv6k/fpu/libg.a(lib_a-bsearch.o)
 .ARM.attributes
                0x000000000000070c       0x32 /opt/devkitpro/devkitARM/lib/gcc/arm-none-eabi/4.9.2/../../../../arm-none-eabi/lib/armv6k/fpu/libg.a(lib_a-fini.o)
 .ARM.attributes
                0x000000000000073e       0x32 /opt/devkitpro/devkitARM/lib/gcc/arm-none-eabi/4.9.2/../../../../arm-none-eabi/lib/armv6k/fpu/libg.a(lib_a-init.o)
 .ARM.attributes
                0x0000000000000770       0x32 /opt/devkitpro/devkitARM/lib/gcc/arm-none-eabi/4.9.2/../../../../arm-none-eabi/lib/armv6k/fpu/libg.a(lib_a-iprintf.o)
 .ARM.attributes
                0x00000000000007a2       0x32 /opt/devkitpro/devkitARM/lib/gcc/arm-none-eabi/4.9.2/../../../../arm-none-eabi/lib/armv6k/fpu/libg.a(lib_a-malloc.o)
 .ARM.attributes
                0x00000000000007d4       0x32 /opt/devkitpro/devkitARM/lib/gcc/arm-none-eabi/4.9.2/../../../../arm-none-eabi/lib/armv6k/fpu/libg.a(lib_a-mallocr.o)
 .ARM.attributes
                0x0000000000000806       0x32 /opt/devkitpro/devkitARM/lib/gcc/arm-none-eabi/4.9.2/../../../../arm-none-eabi/lib/armv6k/fpu/libg.a(lib_a-memcpy.o)
 .ARM.attributes
                0x0000000000000838       0x32 /opt/devkitpro/devkitARM/lib/gcc/arm-none-eabi/4.9.2/../../../../arm-none-eabi/lib/armv6k/fpu/libg.a(lib_a-memset.o)
 .ARM.attributes
                0x000000000000086a       0x32 /opt/devkitpro/devkitARM/lib/gcc/arm-none-eabi/4.9.2/../../../../arm-none-eabi/lib/armv6k/fpu/libg.a(lib_a-mlock.o)
 .ARM.attributes
                0x000000000000089c       0x32 /opt/devkitpro/devkitARM/lib/gcc/arm-none-eabi/4.9.2/../../../../arm-none-eabi/lib/armv6k/fpu/libg.a(lib_a-printf.o)
 .ARM.attributes
                0x00000000000008ce       0x32 /opt/devkitpro/devkitARM/lib/gcc/arm-none-eabi/4.9.2/../../../../arm-none-eabi/lib/armv6k/fpu/libg.a(lib_a-setvbuf.o)
 .ARM.attributes
                0x0000000000000900       0x32 /opt/devkitpro/devkitARM/lib/gcc/arm-none-eabi/4.9.2/../../../../arm-none-eabi/lib/armv6k/fpu/libg.a(lib_a-sscanf.o)
 .ARM.attributes
                0x0000000000000932       0x32 /opt/devkitpro/devkitARM/lib/gcc/arm-none-eabi/4.9.2/../../../../arm-none-eabi/lib/armv6k/fpu/libg.a(lib_a-stdio.o)
 .ARM.attributes
                0x0000000000000964       0x32 /opt/devkitpro/devkitARM/lib/gcc/arm-none-eabi/4.9.2/../../../../arm-none-eabi/lib/armv6k/fpu/libg.a(lib_a-strchr.o)
 .ARM.attributes
                0x0000000000000996       0x32 /opt/devkitpro/devkitARM/lib/gcc/arm-none-eabi/4.9.2/../../../../arm-none-eabi/lib/armv6k/fpu/libg.a(lib_a-strcpy.o)
 .ARM.attributes
                0x00000000000009c8       0x32 /opt/devkitpro/devkitARM/lib/gcc/arm-none-eabi/4.9.2/../../../../arm-none-eabi/lib/armv6k/fpu/libg.a(lib_a-strlen.o)
 .ARM.attributes
                0x00000000000009fa       0x32 /opt/devkitpro/devkitARM/lib/gcc/arm-none-eabi/4.9.2/../../../../arm-none-eabi/lib/armv6k/fpu/libg.a(lib_a-strncat.o)
 .ARM.attributes
                0x0000000000000a2c       0x32 /opt/devkitpro/devkitARM/lib/gcc/arm-none-eabi/4.9.2/../../../../arm-none-eabi/lib/armv6k/fpu/libg.a(lib_a-strncpy.o)
 .ARM.attributes
                0x0000000000000a5e       0x32 /opt/devkitpro/devkitARM/lib/gcc/arm-none-eabi/4.9.2/../../../../arm-none-eabi/lib/armv6k/fpu/libg.a(lib_a-svfscanf.o)
 .ARM.attributes
                0x0000000000000a90       0x32 /opt/devkitpro/devkitARM/lib/gcc/arm-none-eabi/4.9.2/../../../../arm-none-eabi/lib/armv6k/fpu/libg.a(lib_a-vfiprintf.o)
 .ARM.attributes
                0x0000000000000ac2       0x32 /opt/devkitpro/devkitARM/lib/gcc/arm-none-eabi/4.9.2/../../../../arm-none-eabi/lib/armv6k/fpu/libg.a(lib_a-vfprintf.o)
 .ARM.attributes
                0x0000000000000af4       0x32 /opt/devkitpro/devkitARM/lib/gcc/arm-none-eabi/4.9.2/../../../../arm-none-eabi/lib/armv6k/fpu/libg.a(lib_a-wcrtomb.o)
 .ARM.attributes
                0x0000000000000b26       0x32 /opt/devkitpro/devkitARM/lib/gcc/arm-none-eabi/4.9.2/../../../../arm-none-eabi/lib/armv6k/fpu/libg.a(lib_a-wcsrtombs.o)
 .ARM.attributes
                0x0000000000000b58       0x32 /opt/devkitpro/devkitARM/lib/gcc/arm-none-eabi/4.9.2/../../../../arm-none-eabi/lib/armv6k/fpu/libg.a(lib_a-wctomb_r.o)
 .ARM.attributes
                0x0000000000000b8a       0x32 /opt/devkitpro/devkitARM/lib/gcc/arm-none-eabi/4.9.2/../../../../arm-none-eabi/lib/armv6k/fpu/libg.a(lib_a-wsetup.o)
 .ARM.attributes
                0x0000000000000bbc       0x32 /opt/devkitpro/devkitARM/lib/gcc/arm-none-eabi/4.9.2/../../../../arm-none-eabi/lib/armv6k/fpu/libg.a(lib_a-ctype_.o)
 .ARM.attributes
                0x0000000000000bee       0x32 /opt/devkitpro/devkitARM/lib/gcc/arm-none-eabi/4.9.2/../../../../arm-none-eabi/lib/armv6k/fpu/libg.a(lib_a-dtoa.o)
 .ARM.attributes
                0x0000000000000c20       0x32 /opt/devkitpro/devkitARM/lib/gcc/arm-none-eabi/4.9.2/../../../../arm-none-eabi/lib/armv6k/fpu/libg.a(lib_a-fflush.o)
 .ARM.attributes
                0x0000000000000c52       0x32 /opt/devkitpro/devkitARM/lib/gcc/arm-none-eabi/4.9.2/../../../../arm-none-eabi/lib/armv6k/fpu/libg.a(lib_a-findfp.o)
 .ARM.attributes
                0x0000000000000c84       0x32 /opt/devkitpro/devkitARM/lib/gcc/arm-none-eabi/4.9.2/../../../../arm-none-eabi/lib/armv6k/fpu/libg.a(lib_a-fputwc.o)
 .ARM.attributes
                0x0000000000000cb6       0x32 /opt/devkitpro/devkitARM/lib/gcc/arm-none-eabi/4.9.2/../../../../arm-none-eabi/lib/armv6k/fpu/libg.a(lib_a-freer.o)
 .ARM.attributes
                0x0000000000000ce8       0x32 /opt/devkitpro/devkitARM/lib/gcc/arm-none-eabi/4.9.2/../../../../arm-none-eabi/lib/armv6k/fpu/libg.a(lib_a-fvwrite.o)
 .ARM.attributes
                0x0000000000000d1a       0x32 /opt/devkitpro/devkitARM/lib/gcc/arm-none-eabi/4.9.2/../../../../arm-none-eabi/lib/armv6k/fpu/libg.a(lib_a-fwalk.o)
 .ARM.attributes
                0x0000000000000d4c       0x32 /opt/devkitpro/devkitARM/lib/gcc/arm-none-eabi/4.9.2/../../../../arm-none-eabi/lib/armv6k/fpu/libg.a(lib_a-impure.o)
 .ARM.attributes
                0x0000000000000d7e       0x32 /opt/devkitpro/devkitARM/lib/gcc/arm-none-eabi/4.9.2/../../../../arm-none-eabi/lib/armv6k/fpu/libg.a(lib_a-iswspace.o)
 .ARM.attributes
                0x0000000000000db0       0x32 /opt/devkitpro/devkitARM/lib/gcc/arm-none-eabi/4.9.2/../../../../arm-none-eabi/lib/armv6k/fpu/libg.a(lib_a-jp2uc.o)
 .ARM.attributes
                0x0000000000000de2       0x32 /opt/devkitpro/devkitARM/lib/gcc/arm-none-eabi/4.9.2/../../../../arm-none-eabi/lib/armv6k/fpu/libg.a(lib_a-locale.o)
 .ARM.attributes
                0x0000000000000e14       0x32 /opt/devkitpro/devkitARM/lib/gcc/arm-none-eabi/4.9.2/../../../../arm-none-eabi/lib/armv6k/fpu/libg.a(lib_a-makebuf.o)
 .ARM.attributes
                0x0000000000000e46       0x32 /opt/devkitpro/devkitARM/lib/gcc/arm-none-eabi/4.9.2/../../../../arm-none-eabi/lib/armv6k/fpu/libg.a(lib_a-mbrtowc.o)
 .ARM.attributes
                0x0000000000000e78       0x32 /opt/devkitpro/devkitARM/lib/gcc/arm-none-eabi/4.9.2/../../../../arm-none-eabi/lib/armv6k/fpu/libg.a(lib_a-mbtowc_r.o)
 .ARM.attributes
                0x0000000000000eaa       0x32 /opt/devkitpro/devkitARM/lib/gcc/arm-none-eabi/4.9.2/../../../../arm-none-eabi/lib/armv6k/fpu/libg.a(lib_a-memchr.o)
 .ARM.attributes
                0x0000000000000edc       0x32 /opt/devkitpro/devkitARM/lib/gcc/arm-none-eabi/4.9.2/../../../../arm-none-eabi/lib/armv6k/fpu/libg.a(lib_a-memmove.o)
 .ARM.attributes
                0x0000000000000f0e       0x32 /opt/devkitpro/devkitARM/lib/gcc/arm-none-eabi/4.9.2/../../../../arm-none-eabi/lib/armv6k/fpu/libg.a(lib_a-mprec.o)
 .ARM.attributes
                0x0000000000000f40       0x32 /opt/devkitpro/devkitARM/lib/gcc/arm-none-eabi/4.9.2/../../../../arm-none-eabi/lib/armv6k/fpu/libg.a(lib_a-reallocr.o)
 .ARM.attributes
                0x0000000000000f72       0x32 /opt/devkitpro/devkitARM/lib/gcc/arm-none-eabi/4.9.2/../../../../arm-none-eabi/lib/armv6k/fpu/libg.a(lib_a-sccl.o)
 .ARM.attributes
                0x0000000000000fa4       0x32 /opt/devkitpro/devkitARM/lib/gcc/arm-none-eabi/4.9.2/../../../../arm-none-eabi/lib/armv6k/fpu/libg.a(lib_a-sf_nan.o)
 .ARM.attributes
                0x0000000000000fd6       0x32 /opt/devkitpro/devkitARM/lib/gcc/arm-none-eabi/4.9.2/../../../../arm-none-eabi/lib/armv6k/fpu/libg.a(lib_a-s_fpclassify.o)
 .ARM.attributes
                0x0000000000001008       0x32 /opt/devkitpro/devkitARM/lib/gcc/arm-none-eabi/4.9.2/../../../../arm-none-eabi/lib/armv6k/fpu/libg.a(lib_a-s_frexp.o)
 .ARM.attributes
                0x000000000000103a       0x32 /opt/devkitpro/devkitARM/lib/gcc/arm-none-eabi/4.9.2/../../../../arm-none-eabi/lib/armv6k/fpu/libg.a(lib_a-sprintf.o)
 .ARM.attributes
                0x000000000000106c       0x32 /opt/devkitpro/devkitARM/lib/gcc/arm-none-eabi/4.9.2/../../../../arm-none-eabi/lib/armv6k/fpu/libg.a(lib_a-stpncpy.o)
 .ARM.attributes
                0x000000000000109e       0x32 /opt/devkitpro/devkitARM/lib/gcc/arm-none-eabi/4.9.2/../../../../arm-none-eabi/lib/armv6k/fpu/libg.a(lib_a-strcasecmp.o)
 .ARM.attributes
                0x00000000000010d0       0x32 /opt/devkitpro/devkitARM/lib/gcc/arm-none-eabi/4.9.2/../../../../arm-none-eabi/lib/armv6k/fpu/libg.a(lib_a-strcat.o)
 .ARM.attributes
                0x0000000000001102       0x1a /opt/devkitpro/devkitARM/lib/gcc/arm-none-eabi/4.9.2/../../../../arm-none-eabi/lib/armv6k/fpu/libg.a(lib_a-strcmp.o)
 .ARM.attributes
                0x000000000000111c       0x32 /opt/devkitpro/devkitARM/lib/gcc/arm-none-eabi/4.9.2/../../../../arm-none-eabi/lib/armv6k/fpu/libg.a(lib_a-strlcpy.o)
 .ARM.attributes
                0x000000000000114e       0x32 /opt/devkitpro/devkitARM/lib/gcc/arm-none-eabi/4.9.2/../../../../arm-none-eabi/lib/armv6k/fpu/libg.a(lib_a-strncasecmp.o)
 .ARM.attributes
                0x0000000000001180       0x32 /opt/devkitpro/devkitARM/lib/gcc/arm-none-eabi/4.9.2/../../../../arm-none-eabi/lib/armv6k/fpu/libg.a(lib_a-strncmp.o)
 .ARM.attributes
                0x00000000000011b2       0x32 /opt/devkitpro/devkitARM/lib/gcc/arm-none-eabi/4.9.2/../../../../arm-none-eabi/lib/armv6k/fpu/libg.a(lib_a-strtod.o)
 .ARM.attributes
                0x00000000000011e4       0x32 /opt/devkitpro/devkitARM/lib/gcc/arm-none-eabi/4.9.2/../../../../arm-none-eabi/lib/armv6k/fpu/libg.a(lib_a-strtoll_r.o)
 .ARM.attributes
                0x0000000000001216       0x32 /opt/devkitpro/devkitARM/lib/gcc/arm-none-eabi/4.9.2/../../../../arm-none-eabi/lib/armv6k/fpu/libg.a(lib_a-strtol.o)
 .ARM.attributes
                0x0000000000001248       0x32 /opt/devkitpro/devkitARM/lib/gcc/arm-none-eabi/4.9.2/../../../../arm-none-eabi/lib/armv6k/fpu/libg.a(lib_a-strtoull_r.o)
 .ARM.attributes
                0x000000000000127a       0x32 /opt/devkitpro/devkitARM/lib/gcc/arm-none-eabi/4.9.2/../../../../arm-none-eabi/lib/armv6k/fpu/libg.a(lib_a-strtoul.o)
 .ARM.attributes
                0x00000000000012ac       0x32 /opt/devkitpro/devkitARM/lib/gcc/arm-none-eabi/4.9.2/../../../../arm-none-eabi/lib/armv6k/fpu/libg.a(lib_a-svfiprintf.o)
 .ARM.attributes
                0x00000000000012de       0x32 /opt/devkitpro/devkitARM/lib/gcc/arm-none-eabi/4.9.2/../../../../arm-none-eabi/lib/armv6k/fpu/libg.a(lib_a-svfiscanf.o)
 .ARM.attributes
                0x0000000000001310       0x32 /opt/devkitpro/devkitARM/lib/gcc/arm-none-eabi/4.9.2/../../../../arm-none-eabi/lib/armv6k/fpu/libg.a(lib_a-svfprintf.o)
 .ARM.attributes
                0x0000000000001342       0x32 /opt/devkitpro/devkitARM/lib/gcc/arm-none-eabi/4.9.2/../../../../arm-none-eabi/lib/armv6k/fpu/libg.a(lib_a-ungetc.o)
 .ARM.attributes
                0x0000000000001374       0x32 /opt/devkitpro/devkitARM/lib/gcc/arm-none-eabi/4.9.2/../../../../arm-none-eabi/lib/armv6k/fpu/libg.a(lib_a-wbuf.o)
 .ARM.attributes
                0x00000000000013a6       0x32 /opt/devkitpro/devkitARM/lib/gcc/arm-none-eabi/4.9.2/../../../../arm-none-eabi/lib/armv6k/fpu/libg.a(lib_a-wcsnrtombs.o)
 .ARM.attributes
                0x00000000000013d8       0x32 /opt/devkitpro/devkitARM/lib/gcc/arm-none-eabi/4.9.2/../../../../arm-none-eabi/lib/armv6k/fpu/libg.a(lib_a-callocr.o)
 .ARM.attributes
                0x000000000000140a       0x32 /opt/devkitpro/devkitARM/lib/gcc/arm-none-eabi/4.9.2/../../../../arm-none-eabi/lib/armv6k/fpu/libg.a(lib_a-fclose.o)
 .ARM.attributes
                0x000000000000143c       0x32 /opt/devkitpro/devkitARM/lib/gcc/arm-none-eabi/4.9.2/../../../../arm-none-eabi/lib/armv6k/fpu/libg.a(lib_a-gdtoa-gethex.o)
 .ARM.attributes
                0x000000000000146e       0x32 /opt/devkitpro/devkitARM/lib/gcc/arm-none-eabi/4.9.2/../../../../arm-none-eabi/lib/armv6k/fpu/libg.a(lib_a-gdtoa-hexnan.o)
 .ARM.attributes
                0x00000000000014a0       0x32 /opt/devkitpro/devkitARM/lib/gcc/arm-none-eabi/4.9.2/../../../../arm-none-eabi/lib/armv6k/fpu/libg.a(lib_a-getenv_r.o)
 .ARM.attributes
                0x00000000000014d2       0x32 /opt/devkitpro/devkitARM/lib/gcc/arm-none-eabi/4.9.2/../../../../arm-none-eabi/lib/armv6k/fpu/libg.a(lib_a-environ.o)
 .ARM.attributes
                0x0000000000001504       0x32 /opt/devkitpro/devkitARM/lib/gcc/arm-none-eabi/4.9.2/../../../../arm-none-eabi/lib/armv6k/fpu/libg.a(lib_a-envlock.o)
 .ARM.attributes
                0x0000000000001536       0x32 /opt/devkitpro/devkitARM/lib/gcc/arm-none-eabi/4.9.2/../../../../arm-none-eabi/lib/armv6k/fpu/libsysbase.a(iosupport.o)
 .ARM.attributes
                0x0000000000001568       0x32 /opt/devkitpro/devkitARM/lib/gcc/arm-none-eabi/4.9.2/../../../../arm-none-eabi/lib/armv6k/fpu/libsysbase.a(close.o)
 .ARM.attributes
                0x000000000000159a       0x32 /opt/devkitpro/devkitARM/lib/gcc/arm-none-eabi/4.9.2/../../../../arm-none-eabi/lib/armv6k/fpu/libsysbase.a(fstat.o)
 .ARM.attributes
                0x00000000000015cc       0x32 /opt/devkitpro/devkitARM/lib/gcc/arm-none-eabi/4.9.2/../../../../arm-none-eabi/lib/armv6k/fpu/libsysbase.a(isatty.o)
 .ARM.attributes
                0x00000000000015fe       0x32 /opt/devkitpro/devkitARM/lib/gcc/arm-none-eabi/4.9.2/../../../../arm-none-eabi/lib/armv6k/fpu/libsysbase.a(lseek.o)
 .ARM.attributes
                0x0000000000001630       0x32 /opt/devkitpro/devkitARM/lib/gcc/arm-none-eabi/4.9.2/../../../../arm-none-eabi/lib/armv6k/fpu/libsysbase.a(read.o)
 .ARM.attributes
                0x0000000000001662       0x32 /opt/devkitpro/devkitARM/lib/gcc/arm-none-eabi/4.9.2/../../../../arm-none-eabi/lib/armv6k/fpu/libsysbase.a(sbrk.o)
 .ARM.attributes
                0x0000000000001694       0x32 /opt/devkitpro/devkitARM/lib/gcc/arm-none-eabi/4.9.2/../../../../arm-none-eabi/lib/armv6k/fpu/libsysbase.a(write.o)
 .ARM.attributes
                0x00000000000016c6       0x32 /opt/devkitpro/devkitARM/lib/gcc/arm-none-eabi/4.9.2/../../../../arm-none-eabi/lib/armv6k/fpu/libsysbase.a(malloc_vars.o)
 .ARM.attributes
                0x00000000000016f8       0x32 /opt/devkitpro/devkitARM/lib/gcc/arm-none-eabi/4.9.2/../../../../arm-none-eabi/lib/armv6k/fpu/libsysbase.a(chdir.o)
 .ARM.attributes
                0x000000000000172a       0x32 /opt/devkitpro/devkitARM/lib/gcc/arm-none-eabi/4.9.2/../../../../arm-none-eabi/lib/armv6k/fpu/libsysbase.a(flock.o)
 .ARM.attributes
                0x000000000000175c       0x32 /opt/devkitpro/devkitARM/lib/gcc/arm-none-eabi/4.9.2/../../../../arm-none-eabi/lib/armv6k/fpu/libsysbase.a(syscall_support.o)
 .ARM.attributes
                0x000000000000178e       0x32 /opt/devkitpro/devkitARM/lib/gcc/arm-none-eabi/4.9.2/../../../../arm-none-eabi/lib/armv6k/fpu/libsysbase.a(handle_manager.o)
 .ARM.attributes
                0x00000000000017c0       0x32 /opt/devkitpro/devkitARM/lib/gcc/arm-none-eabi/4.9.2/../../../../arm-none-eabi/lib/armv6k/fpu/libsysbase.a(getreent.o)
 .ARM.attributes
                0x00000000000017f2       0x1c /opt/devkitpro/devkitARM/lib/gcc/arm-none-eabi/4.9.2/armv6k/fpu/libgcc.a(_udivsi3.o)
 .ARM.attributes
                0x000000000000180e       0x1c /opt/devkitpro/devkitARM/lib/gcc/arm-none-eabi/4.9.2/armv6k/fpu/libgcc.a(_aeabi_uldivmod.o)
 .ARM.attributes
                0x000000000000182a       0x32 /opt/devkitpro/devkitARM/lib/gcc/arm-none-eabi/4.9.2/armv6k/fpu/libgcc.a(bpabi.o)
 .ARM.attributes
                0x000000000000185c       0x32 /opt/devkitpro/devkitARM/lib/gcc/arm-none-eabi/4.9.2/armv6k/fpu/libgcc.a(_divdi3.o)
 .ARM.attributes
                0x000000000000188e       0x32 /opt/devkitpro/devkitARM/lib/gcc/arm-none-eabi/4.9.2/armv6k/fpu/libgcc.a(_udivdi3.o)
 .ARM.attributes
                0x00000000000018c0       0x32 /opt/devkitpro/devkitARM/lib/gcc/arm-none-eabi/4.9.2/../../../../arm-none-eabi/lib/armv6k/fpu/libg.a(lib_a-errno.o)
 .ARM.attributes
                0x00000000000018f2       0x32 /opt/devkitpro/devkitARM/lib/gcc/arm-none-eabi/4.9.2/../../../../arm-none-eabi/lib/armv6k/fpu/libg.a(lib_a-strnlen.o)
 .ARM.attributes
                0x0000000000001924       0x32 /opt/devkitpro/devkitARM/lib/gcc/arm-none-eabi/4.9.2/../../../../arm-none-eabi/lib/armv6k/fpu/libg.a(lib_a-strrchr.o)
 .ARM.attributes
                0x0000000000001956       0x32 /opt/devkitpro/devkitARM/lib/gcc/arm-none-eabi/4.9.2/armv6k/fpu/crtend.o
 .ARM.attributes
                0x0000000000001988       0x1c /opt/devkitpro/devkitARM/lib/gcc/arm-none-eabi/4.9.2/armv6k/fpu/crtn.o

.debug_ranges   0x0000000000000000      0x8a0
 .debug_ranges  0x0000000000000000       0x30 main.o
 .debug_ranges  0x0000000000000030       0x48 /opt/devkitpro/libctru/lib/libctru.a(os.o)
 .debug_ranges  0x0000000000000078       0xa0 /opt/devkitpro/libctru/lib/libctru.a(console.o)
 .debug_ranges  0x0000000000000118       0x90 /opt/devkitpro/libctru/lib/libctru.a(gfx.o)
 .debug_ranges  0x00000000000001a8       0x40 /opt/devkitpro/libctru/lib/libctru.a(gsp.o)
 .debug_ranges  0x00000000000001e8       0xf0 /opt/devkitpro/libctru/lib/libctru.a(apt.o)
 .debug_ranges  0x00000000000002d8       0x78 /opt/devkitpro/libctru/lib/libctru.a(vram.o)
 .debug_ranges  0x0000000000000350       0x70 /opt/devkitpro/libctru/lib/libctru.a(linear.o)
 .debug_ranges  0x00000000000003c0      0x1d8 /opt/devkitpro/libctru/lib/libctru.a(mem_pool.o)
 .debug_ranges  0x0000000000000598      0x110 /opt/devkitpro/libctru/lib/libctru.a(rbtree_insert.o)
 .debug_ranges  0x00000000000006a8       0x30 /opt/devkitpro/libctru/lib/libctru.a(rbtree_rotate.o)
 .debug_ranges  0x00000000000006d8       0xf8 /opt/devkitpro/libctru/lib/libctru.a(rbtree_remove.o)
 .debug_ranges  0x00000000000007d0       0x20 /opt/devkitpro/libctru/lib/libctru.a(rbtree_find.o)
 .debug_ranges  0x00000000000007f0       0x48 /opt/devkitpro/libctru/lib/libctru.a(sdmc_dev.o)
 .debug_ranges  0x0000000000000838       0x30 /opt/devkitpro/libctru/lib/libctru.a(rbtree_iterator.o)
 .debug_ranges  0x0000000000000868       0x10 /opt/devkitpro/libctru/lib/libctru.a(decode_utf8.o)
 .debug_ranges  0x0000000000000878       0x18 /opt/devkitpro/libctru/lib/libctru.a(irrst.o)
 .debug_ranges  0x0000000000000890       0x10 /opt/devkitpro/libctru/lib/libctru.a(decode_utf16.o)
